
/home/helttek/nsu/epsmim/lab4/build/first:     file format elf64-x86-64


Disassembly of section .init:

0000000000002000 <_init>:
    2000:	f3 0f 1e fa          	endbr64
    2004:	48 83 ec 08          	sub    $0x8,%rsp
    2008:	48 8b 05 c1 3f 00 00 	mov    0x3fc1(%rip),%rax        # 5fd0 <__gmon_start__@Base>
    200f:	48 85 c0             	test   %rax,%rax
    2012:	74 02                	je     2016 <_init+0x16>
    2014:	ff d0                	call   *%rax
    2016:	48 83 c4 08          	add    $0x8,%rsp
    201a:	c3                   	ret

Disassembly of section .plt:

0000000000002020 <_ZNSo3putEc@plt-0x10>:
    2020:	ff 35 ca 3f 00 00    	push   0x3fca(%rip)        # 5ff0 <_GLOBAL_OFFSET_TABLE_+0x8>
    2026:	ff 25 cc 3f 00 00    	jmp    *0x3fcc(%rip)        # 5ff8 <_GLOBAL_OFFSET_TABLE_+0x10>
    202c:	0f 1f 40 00          	nopl   0x0(%rax)

0000000000002030 <_ZNSo3putEc@plt>:
    2030:	ff 25 ca 3f 00 00    	jmp    *0x3fca(%rip)        # 6000 <_ZNSo3putEc@GLIBCXX_3.4>
    2036:	68 00 00 00 00       	push   $0x0
    203b:	e9 e0 ff ff ff       	jmp    2020 <_init+0x20>

0000000000002040 <__kmpc_for_static_fini@plt>:
    2040:	ff 25 c2 3f 00 00    	jmp    *0x3fc2(%rip)        # 6008 <__kmpc_for_static_fini@VERSION>
    2046:	68 01 00 00 00       	push   $0x1
    204b:	e9 d0 ff ff ff       	jmp    2020 <_init+0x20>

0000000000002050 <_ZNSt6chrono3_V212system_clock3nowEv@plt>:
    2050:	ff 25 ba 3f 00 00    	jmp    *0x3fba(%rip)        # 6010 <_ZNSt6chrono3_V212system_clock3nowEv@GLIBCXX_3.4.19>
    2056:	68 02 00 00 00       	push   $0x2
    205b:	e9 c0 ff ff ff       	jmp    2020 <_init+0x20>

0000000000002060 <_ZNSt13basic_filebufIcSt11char_traitsIcEE5closeEv@plt>:
    2060:	ff 25 b2 3f 00 00    	jmp    *0x3fb2(%rip)        # 6018 <_ZNSt13basic_filebufIcSt11char_traitsIcEE5closeEv@GLIBCXX_3.4>
    2066:	68 03 00 00 00       	push   $0x3
    206b:	e9 b0 ff ff ff       	jmp    2020 <_init+0x20>

0000000000002070 <__kmpc_reduce_nowait@plt>:
    2070:	ff 25 aa 3f 00 00    	jmp    *0x3faa(%rip)        # 6020 <__kmpc_reduce_nowait@VERSION>
    2076:	68 04 00 00 00       	push   $0x4
    207b:	e9 a0 ff ff ff       	jmp    2020 <_init+0x20>

0000000000002080 <__kmpc_global_thread_num@plt>:
    2080:	ff 25 a2 3f 00 00    	jmp    *0x3fa2(%rip)        # 6028 <__kmpc_global_thread_num@VERSION>
    2086:	68 05 00 00 00       	push   $0x5
    208b:	e9 90 ff ff ff       	jmp    2020 <_init+0x20>

0000000000002090 <posix_memalign@plt>:
    2090:	ff 25 9a 3f 00 00    	jmp    *0x3f9a(%rip)        # 6030 <posix_memalign@GLIBC_2.2.5>
    2096:	68 06 00 00 00       	push   $0x6
    209b:	e9 80 ff ff ff       	jmp    2020 <_init+0x20>

00000000000020a0 <__kmpc_end_reduce_nowait@plt>:
    20a0:	ff 25 92 3f 00 00    	jmp    *0x3f92(%rip)        # 6038 <__kmpc_end_reduce_nowait@VERSION>
    20a6:	68 07 00 00 00       	push   $0x7
    20ab:	e9 70 ff ff ff       	jmp    2020 <_init+0x20>

00000000000020b0 <_ZNSo5flushEv@plt>:
    20b0:	ff 25 8a 3f 00 00    	jmp    *0x3f8a(%rip)        # 6040 <_ZNSo5flushEv@GLIBCXX_3.4>
    20b6:	68 08 00 00 00       	push   $0x8
    20bb:	e9 60 ff ff ff       	jmp    2020 <_init+0x20>

00000000000020c0 <_ZNSt14basic_ofstreamIcSt11char_traitsIcEEC1EPKcSt13_Ios_Openmode@plt>:
    20c0:	ff 25 82 3f 00 00    	jmp    *0x3f82(%rip)        # 6048 <_ZNSt14basic_ofstreamIcSt11char_traitsIcEEC1EPKcSt13_Ios_Openmode@GLIBCXX_3.4>
    20c6:	68 09 00 00 00       	push   $0x9
    20cb:	e9 50 ff ff ff       	jmp    2020 <_init+0x20>

00000000000020d0 <omp_set_num_threads@plt>:
    20d0:	ff 25 7a 3f 00 00    	jmp    *0x3f7a(%rip)        # 6050 <omp_set_num_threads@OMP_1.0>
    20d6:	68 0a 00 00 00       	push   $0xa
    20db:	e9 40 ff ff ff       	jmp    2020 <_init+0x20>

00000000000020e0 <_ZSt16__ostream_insertIcSt11char_traitsIcEERSt13basic_ostreamIT_T0_ES6_PKS3_l@plt>:
    20e0:	ff 25 72 3f 00 00    	jmp    *0x3f72(%rip)        # 6058 <_ZSt16__ostream_insertIcSt11char_traitsIcEERSt13basic_ostreamIT_T0_ES6_PKS3_l@GLIBCXX_3.4.9>
    20e6:	68 0b 00 00 00       	push   $0xb
    20eb:	e9 30 ff ff ff       	jmp    2020 <_init+0x20>

00000000000020f0 <_ZNKSt5ctypeIcE13_M_widen_initEv@plt>:
    20f0:	ff 25 6a 3f 00 00    	jmp    *0x3f6a(%rip)        # 6060 <_ZNKSt5ctypeIcE13_M_widen_initEv@GLIBCXX_3.4.11>
    20f6:	68 0c 00 00 00       	push   $0xc
    20fb:	e9 20 ff ff ff       	jmp    2020 <_init+0x20>

0000000000002100 <free@plt>:
    2100:	ff 25 62 3f 00 00    	jmp    *0x3f62(%rip)        # 6068 <free@GLIBC_2.2.5>
    2106:	68 0d 00 00 00       	push   $0xd
    210b:	e9 10 ff ff ff       	jmp    2020 <_init+0x20>

0000000000002110 <_ZSt16__throw_bad_castv@plt>:
    2110:	ff 25 5a 3f 00 00    	jmp    *0x3f5a(%rip)        # 6070 <_ZSt16__throw_bad_castv@GLIBCXX_3.4>
    2116:	68 0e 00 00 00       	push   $0xe
    211b:	e9 00 ff ff ff       	jmp    2020 <_init+0x20>

0000000000002120 <_ZNSo5writeEPKcl@plt>:
    2120:	ff 25 52 3f 00 00    	jmp    *0x3f52(%rip)        # 6078 <_ZNSo5writeEPKcl@GLIBCXX_3.4>
    2126:	68 0f 00 00 00       	push   $0xf
    212b:	e9 f0 fe ff ff       	jmp    2020 <_init+0x20>

0000000000002130 <_ZNSt14basic_ofstreamIcSt11char_traitsIcEED1Ev@plt>:
    2130:	ff 25 4a 3f 00 00    	jmp    *0x3f4a(%rip)        # 6080 <_ZNSt14basic_ofstreamIcSt11char_traitsIcEED1Ev@GLIBCXX_3.4>
    2136:	68 10 00 00 00       	push   $0x10
    213b:	e9 e0 fe ff ff       	jmp    2020 <_init+0x20>

0000000000002140 <__kmpc_barrier@plt>:
    2140:	ff 25 42 3f 00 00    	jmp    *0x3f42(%rip)        # 6088 <__kmpc_barrier@VERSION>
    2146:	68 11 00 00 00       	push   $0x11
    214b:	e9 d0 fe ff ff       	jmp    2020 <_init+0x20>

0000000000002150 <__kmpc_for_static_init_4@plt>:
    2150:	ff 25 3a 3f 00 00    	jmp    *0x3f3a(%rip)        # 6090 <__kmpc_for_static_init_4@VERSION>
    2156:	68 12 00 00 00       	push   $0x12
    215b:	e9 c0 fe ff ff       	jmp    2020 <_init+0x20>

0000000000002160 <_ZNSo9_M_insertIdEERSoT_@plt>:
    2160:	ff 25 32 3f 00 00    	jmp    *0x3f32(%rip)        # 6098 <_ZNSo9_M_insertIdEERSoT_@GLIBCXX_3.4.9>
    2166:	68 13 00 00 00       	push   $0x13
    216b:	e9 b0 fe ff ff       	jmp    2020 <_init+0x20>

0000000000002170 <_ZNSt9basic_iosIcSt11char_traitsIcEE5clearESt12_Ios_Iostate@plt>:
    2170:	ff 25 2a 3f 00 00    	jmp    *0x3f2a(%rip)        # 60a0 <_ZNSt9basic_iosIcSt11char_traitsIcEE5clearESt12_Ios_Iostate@GLIBCXX_3.4>
    2176:	68 14 00 00 00       	push   $0x14
    217b:	e9 a0 fe ff ff       	jmp    2020 <_init+0x20>

0000000000002180 <__kmpc_push_proc_bind@plt>:
    2180:	ff 25 22 3f 00 00    	jmp    *0x3f22(%rip)        # 60a8 <__kmpc_push_proc_bind@VERSION>
    2186:	68 15 00 00 00       	push   $0x15
    218b:	e9 90 fe ff ff       	jmp    2020 <_init+0x20>

0000000000002190 <_Unwind_Resume@plt>:
    2190:	ff 25 1a 3f 00 00    	jmp    *0x3f1a(%rip)        # 60b0 <_Unwind_Resume@GCC_3.0>
    2196:	68 16 00 00 00       	push   $0x16
    219b:	e9 80 fe ff ff       	jmp    2020 <_init+0x20>

00000000000021a0 <__kmpc_fork_call@plt>:
    21a0:	ff 25 12 3f 00 00    	jmp    *0x3f12(%rip)        # 60b8 <__kmpc_fork_call@VERSION>
    21a6:	68 17 00 00 00       	push   $0x17
    21ab:	e9 70 fe ff ff       	jmp    2020 <_init+0x20>

Disassembly of section .plt.got:

00000000000021b0 <__cxa_finalize@plt>:
    21b0:	ff 25 fa 3d 00 00    	jmp    *0x3dfa(%rip)        # 5fb0 <__cxa_finalize@GLIBC_2.2.5>
    21b6:	66 90                	xchg   %ax,%ax

Disassembly of section .text:

00000000000021c0 <set_fast_math>:
    21c0:	f3 0f 1e fa          	endbr64
    21c4:	55                   	push   %rbp
    21c5:	48 89 e5             	mov    %rsp,%rbp
    21c8:	0f ae 5d fc          	stmxcsr -0x4(%rbp)
    21cc:	81 4d fc 40 80 00 00 	orl    $0x8040,-0x4(%rbp)
    21d3:	0f ae 55 fc          	ldmxcsr -0x4(%rbp)
    21d7:	5d                   	pop    %rbp
    21d8:	c3                   	ret
    21d9:	0f 1f 80 00 00 00 00 	nopl   0x0(%rax)

00000000000021e0 <_start>:
    21e0:	f3 0f 1e fa          	endbr64
    21e4:	31 ed                	xor    %ebp,%ebp
    21e6:	49 89 d1             	mov    %rdx,%r9
    21e9:	5e                   	pop    %rsi
    21ea:	48 89 e2             	mov    %rsp,%rdx
    21ed:	48 83 e4 f0          	and    $0xfffffffffffffff0,%rsp
    21f1:	50                   	push   %rax
    21f2:	54                   	push   %rsp
    21f3:	45 31 c0             	xor    %r8d,%r8d
    21f6:	31 c9                	xor    %ecx,%ecx
    21f8:	48 8d 3d d1 0b 00 00 	lea    0xbd1(%rip),%rdi        # 2dd0 <main>
    21ff:	ff 15 b3 3d 00 00    	call   *0x3db3(%rip)        # 5fb8 <__libc_start_main@GLIBC_2.34>
    2205:	f4                   	hlt
    2206:	66 2e 0f 1f 84 00 00 	cs nopw 0x0(%rax,%rax,1)
    220d:	00 00 00 

0000000000002210 <deregister_tm_clones>:
    2210:	48 8d 3d c1 3e 00 00 	lea    0x3ec1(%rip),%rdi        # 60d8 <__TMC_END__>
    2217:	48 8d 05 ba 3e 00 00 	lea    0x3eba(%rip),%rax        # 60d8 <__TMC_END__>
    221e:	48 39 f8             	cmp    %rdi,%rax
    2221:	74 15                	je     2238 <deregister_tm_clones+0x28>
    2223:	48 8b 05 9e 3d 00 00 	mov    0x3d9e(%rip),%rax        # 5fc8 <_ITM_deregisterTMCloneTable@Base>
    222a:	48 85 c0             	test   %rax,%rax
    222d:	74 09                	je     2238 <deregister_tm_clones+0x28>
    222f:	ff e0                	jmp    *%rax
    2231:	0f 1f 80 00 00 00 00 	nopl   0x0(%rax)
    2238:	c3                   	ret
    2239:	0f 1f 80 00 00 00 00 	nopl   0x0(%rax)

0000000000002240 <register_tm_clones>:
    2240:	48 8d 3d 91 3e 00 00 	lea    0x3e91(%rip),%rdi        # 60d8 <__TMC_END__>
    2247:	48 8d 35 8a 3e 00 00 	lea    0x3e8a(%rip),%rsi        # 60d8 <__TMC_END__>
    224e:	48 29 fe             	sub    %rdi,%rsi
    2251:	48 89 f0             	mov    %rsi,%rax
    2254:	48 c1 ee 3f          	shr    $0x3f,%rsi
    2258:	48 c1 f8 03          	sar    $0x3,%rax
    225c:	48 01 c6             	add    %rax,%rsi
    225f:	48 d1 fe             	sar    $1,%rsi
    2262:	74 14                	je     2278 <register_tm_clones+0x38>
    2264:	48 8b 05 6d 3d 00 00 	mov    0x3d6d(%rip),%rax        # 5fd8 <_ITM_registerTMCloneTable@Base>
    226b:	48 85 c0             	test   %rax,%rax
    226e:	74 08                	je     2278 <register_tm_clones+0x38>
    2270:	ff e0                	jmp    *%rax
    2272:	66 0f 1f 44 00 00    	nopw   0x0(%rax,%rax,1)
    2278:	c3                   	ret
    2279:	0f 1f 80 00 00 00 00 	nopl   0x0(%rax)

0000000000002280 <__do_global_dtors_aux>:
    2280:	f3 0f 1e fa          	endbr64
    2284:	80 3d 4d 3e 00 00 00 	cmpb   $0x0,0x3e4d(%rip)        # 60d8 <__TMC_END__>
    228b:	75 2b                	jne    22b8 <__do_global_dtors_aux+0x38>
    228d:	55                   	push   %rbp
    228e:	48 83 3d 1a 3d 00 00 	cmpq   $0x0,0x3d1a(%rip)        # 5fb0 <__cxa_finalize@GLIBC_2.2.5>
    2295:	00 
    2296:	48 89 e5             	mov    %rsp,%rbp
    2299:	74 0c                	je     22a7 <__do_global_dtors_aux+0x27>
    229b:	48 8b 3d 26 3e 00 00 	mov    0x3e26(%rip),%rdi        # 60c8 <__dso_handle>
    22a2:	e8 09 ff ff ff       	call   21b0 <__cxa_finalize@plt>
    22a7:	e8 64 ff ff ff       	call   2210 <deregister_tm_clones>
    22ac:	c6 05 25 3e 00 00 01 	movb   $0x1,0x3e25(%rip)        # 60d8 <__TMC_END__>
    22b3:	5d                   	pop    %rbp
    22b4:	c3                   	ret
    22b5:	0f 1f 00             	nopl   (%rax)
    22b8:	c3                   	ret
    22b9:	0f 1f 80 00 00 00 00 	nopl   0x0(%rax)

00000000000022c0 <frame_dummy>:
    22c0:	f3 0f 1e fa          	endbr64
    22c4:	e9 77 ff ff ff       	jmp    2240 <register_tm_clones>
    22c9:	0f 1f 80 00 00 00 00 	nopl   0x0(%rax)

00000000000022d0 <_Z8init_rhov>:
    22d0:	31 c0                	xor    %eax,%eax
    22d2:	c4 e2 7d 19 25 2d 1d 	vbroadcastsd 0x1d2d(%rip),%ymm4        # 4008 <_IO_stdin_used+0x8>
    22d9:	00 00 
    22db:	c4 e2 7d 19 2d 2c 1d 	vbroadcastsd 0x1d2c(%rip),%ymm5        # 4010 <_IO_stdin_used+0x10>
    22e2:	00 00 
    22e4:	c4 e2 7d 19 35 33 1d 	vbroadcastsd 0x1d33(%rip),%ymm6        # 4020 <_IO_stdin_used+0x20>
    22eb:	00 00 
    22ed:	c4 e2 7d 19 3d 22 1d 	vbroadcastsd 0x1d22(%rip),%ymm7        # 4018 <_IO_stdin_used+0x18>
    22f4:	00 00 
    22f6:	c4 41 3d 76 c0       	vpcmpeqd %ymm8,%ymm8,%ymm8
    22fb:	c4 41 31 57 c9       	vxorpd %xmm9,%xmm9,%xmm9
    2300:	c4 62 7d 19 15 1f 1d 	vbroadcastsd 0x1d1f(%rip),%ymm10        # 4028 <_IO_stdin_used+0x28>
    2307:	00 00 
    2309:	c4 62 7d 19 1d 1e 1d 	vbroadcastsd 0x1d1e(%rip),%ymm11        # 4030 <_IO_stdin_used+0x30>
    2310:	00 00 
    2312:	c4 62 79 58 25 e9 1c 	vpbroadcastd 0x1ce9(%rip),%xmm12        # 4004 <_IO_stdin_used+0x4>
    2319:	00 00 
    231b:	31 c9                	xor    %ecx,%ecx
    231d:	0f 1f 00             	nopl   (%rax)
    2320:	c4 41 10 57 ed       	vxorps %xmm13,%xmm13,%xmm13
    2325:	c5 13 2a e9          	vcvtsi2sd %ecx,%xmm13,%xmm13
    2329:	c5 13 59 2d d7 1c 00 	vmulsd 0x1cd7(%rip),%xmm13,%xmm13        # 4008 <_IO_stdin_used+0x8>
    2330:	00 
    2331:	c5 13 58 35 d7 1c 00 	vaddsd 0x1cd7(%rip),%xmm13,%xmm14        # 4010 <_IO_stdin_used+0x10>
    2338:	00 
    2339:	c4 41 0b 59 f6       	vmulsd %xmm14,%xmm14,%xmm14
    233e:	c5 13 58 2d d2 1c 00 	vaddsd 0x1cd2(%rip),%xmm13,%xmm13        # 4018 <_IO_stdin_used+0x18>
    2345:	00 
    2346:	c4 41 13 59 ed       	vmulsd %xmm13,%xmm13,%xmm13
    234b:	c4 42 7d 19 ed       	vbroadcastsd %xmm13,%ymm13
    2350:	c4 42 7d 19 f6       	vbroadcastsd %xmm14,%ymm14
    2355:	48 8b 15 94 3d 00 00 	mov    0x3d94(%rip),%rdx        # 60f0 <rho_grid>
    235c:	48 01 c2             	add    %rax,%rdx
    235f:	31 f6                	xor    %esi,%esi
    2361:	c5 79 6f 3d 17 1d 00 	vmovdqa 0x1d17(%rip),%xmm15        # 4080 <_IO_stdin_used+0x80>
    2368:	00 
    2369:	0f 1f 80 00 00 00 00 	nopl   0x0(%rax)
    2370:	c4 c1 7e e6 c7       	vcvtdq2pd %xmm15,%ymm0
    2375:	c5 fd 59 c4          	vmulpd %ymm4,%ymm0,%ymm0
    2379:	c5 fd 58 cd          	vaddpd %ymm5,%ymm0,%ymm1
    237d:	c4 c2 f5 a8 cd       	vfmadd213pd %ymm13,%ymm1,%ymm1
    2382:	c5 cd c2 d1 02       	vcmplepd %ymm1,%ymm6,%ymm2
    2387:	c5 f5 c2 ce 01       	vcmpltpd %ymm6,%ymm1,%ymm1
    238c:	c5 fd 58 c7          	vaddpd %ymm7,%ymm0,%ymm0
    2390:	c4 c2 fd a8 c6       	vfmadd213pd %ymm14,%ymm0,%ymm0
    2395:	c5 fd c2 c6 01       	vcmpltpd %ymm6,%ymm0,%ymm0
    239a:	c5 f5 56 d8          	vorpd  %ymm0,%ymm1,%ymm3
    239e:	c5 bd 57 db          	vxorpd %ymm3,%ymm8,%ymm3
    23a2:	c4 62 65 2f 0c f2    	vmaskmovpd %ymm9,%ymm3,(%rdx,%rsi,8)
    23a8:	c5 ed 54 c0          	vandpd %ymm0,%ymm2,%ymm0
    23ac:	c4 62 7d 2f 14 f2    	vmaskmovpd %ymm10,%ymm0,(%rdx,%rsi,8)
    23b2:	c4 62 75 2f 1c f2    	vmaskmovpd %ymm11,%ymm1,(%rdx,%rsi,8)
    23b8:	48 83 c6 04          	add    $0x4,%rsi
    23bc:	c4 41 01 fe fc       	vpaddd %xmm12,%xmm15,%xmm15
    23c1:	48 81 fe 40 1f 00 00 	cmp    $0x1f40,%rsi
    23c8:	75 a6                	jne    2370 <_Z8init_rhov+0xa0>
    23ca:	48 ff c1             	inc    %rcx
    23cd:	48 05 00 fa 00 00    	add    $0xfa00,%rax
    23d3:	48 81 f9 40 1f 00 00 	cmp    $0x1f40,%rcx
    23da:	0f 85 40 ff ff ff    	jne    2320 <_Z8init_rhov+0x50>
    23e0:	c5 f8 77             	vzeroupper
    23e3:	c3                   	ret
    23e4:	66 66 66 2e 0f 1f 84 	data16 data16 cs nopw 0x0(%rax,%rax,1)
    23eb:	00 00 00 00 00 

00000000000023f0 <_Z4dumpv>:
    23f0:	53                   	push   %rbx
    23f1:	48 81 ec 00 02 00 00 	sub    $0x200,%rsp
    23f8:	48 8d 35 a1 1c 00 00 	lea    0x1ca1(%rip),%rsi        # 40a0 <_IO_stdin_used+0xa0>
    23ff:	48 89 e7             	mov    %rsp,%rdi
    2402:	ba 04 00 00 00       	mov    $0x4,%edx
    2407:	e8 b4 fc ff ff       	call   20c0 <_ZNSt14basic_ofstreamIcSt11char_traitsIcEEC1EPKcSt13_Ios_Openmode@plt>
    240c:	48 8b 04 24          	mov    (%rsp),%rax
    2410:	48 8b 40 e8          	mov    -0x18(%rax),%rax
    2414:	f6 44 04 20 05       	testb  $0x5,0x20(%rsp,%rax,1)
    2419:	74 3f                	je     245a <_Z4dumpv+0x6a>
    241b:	48 8b 1d be 3b 00 00 	mov    0x3bbe(%rip),%rbx        # 5fe0 <_ZSt4cerr@GLIBCXX_3.4>
    2422:	48 8d 35 82 1c 00 00 	lea    0x1c82(%rip),%rsi        # 40ab <_IO_stdin_used+0xab>
    2429:	ba 2a 00 00 00       	mov    $0x2a,%edx
    242e:	48 89 df             	mov    %rbx,%rdi
    2431:	e8 aa fc ff ff       	call   20e0 <_ZSt16__ostream_insertIcSt11char_traitsIcEERSt13basic_ostreamIT_T0_ES6_PKS3_l@plt>
    2436:	48 8b 03             	mov    (%rbx),%rax
    2439:	48 8b 40 e8          	mov    -0x18(%rax),%rax
    243d:	48 8b 9c 03 f0 00 00 	mov    0xf0(%rbx,%rax,1),%rbx
    2444:	00 
    2445:	48 85 db             	test   %rbx,%rbx
    2448:	0f 84 87 00 00 00    	je     24d5 <_Z4dumpv+0xe5>
    244e:	80 7b 38 00          	cmpb   $0x0,0x38(%rbx)
    2452:	74 43                	je     2497 <_Z4dumpv+0xa7>
    2454:	0f b6 43 43          	movzbl 0x43(%rbx),%eax
    2458:	eb 53                	jmp    24ad <_Z4dumpv+0xbd>
    245a:	48 8b 35 7f 3c 00 00 	mov    0x3c7f(%rip),%rsi        # 60e0 <Phi_grid>
    2461:	48 89 e7             	mov    %rsp,%rdi
    2464:	ba 00 80 84 1e       	mov    $0x1e848000,%edx
    2469:	e8 b2 fc ff ff       	call   2120 <_ZNSo5writeEPKcl@plt>
    246e:	48 8d 7c 24 08       	lea    0x8(%rsp),%rdi
    2473:	e8 e8 fb ff ff       	call   2060 <_ZNSt13basic_filebufIcSt11char_traitsIcEE5closeEv@plt>
    2478:	48 85 c0             	test   %rax,%rax
    247b:	75 47                	jne    24c4 <_Z4dumpv+0xd4>
    247d:	48 8b 04 24          	mov    (%rsp),%rax
    2481:	48 8b 40 e8          	mov    -0x18(%rax),%rax
    2485:	48 8d 3c 04          	lea    (%rsp,%rax,1),%rdi
    2489:	8b 74 04 20          	mov    0x20(%rsp,%rax,1),%esi
    248d:	83 ce 04             	or     $0x4,%esi
    2490:	e8 db fc ff ff       	call   2170 <_ZNSt9basic_iosIcSt11char_traitsIcEE5clearESt12_Ios_Iostate@plt>
    2495:	eb 2d                	jmp    24c4 <_Z4dumpv+0xd4>
    2497:	48 89 df             	mov    %rbx,%rdi
    249a:	e8 51 fc ff ff       	call   20f0 <_ZNKSt5ctypeIcE13_M_widen_initEv@plt>
    249f:	48 8b 03             	mov    (%rbx),%rax
    24a2:	48 89 df             	mov    %rbx,%rdi
    24a5:	be 0a 00 00 00       	mov    $0xa,%esi
    24aa:	ff 50 30             	call   *0x30(%rax)
    24ad:	0f be f0             	movsbl %al,%esi
    24b0:	48 8b 3d 29 3b 00 00 	mov    0x3b29(%rip),%rdi        # 5fe0 <_ZSt4cerr@GLIBCXX_3.4>
    24b7:	e8 74 fb ff ff       	call   2030 <_ZNSo3putEc@plt>
    24bc:	48 89 c7             	mov    %rax,%rdi
    24bf:	e8 ec fb ff ff       	call   20b0 <_ZNSo5flushEv@plt>
    24c4:	48 89 e7             	mov    %rsp,%rdi
    24c7:	e8 64 fc ff ff       	call   2130 <_ZNSt14basic_ofstreamIcSt11char_traitsIcEED1Ev@plt>
    24cc:	48 81 c4 00 02 00 00 	add    $0x200,%rsp
    24d3:	5b                   	pop    %rbx
    24d4:	c3                   	ret
    24d5:	e8 36 fc ff ff       	call   2110 <_ZSt16__throw_bad_castv@plt>
    24da:	48 89 c3             	mov    %rax,%rbx
    24dd:	48 89 e7             	mov    %rsp,%rdi
    24e0:	e8 4b fc ff ff       	call   2130 <_ZNSt14basic_ofstreamIcSt11char_traitsIcEED1Ev@plt>
    24e5:	48 89 df             	mov    %rbx,%rdi
    24e8:	e8 a3 fc ff ff       	call   2190 <_Unwind_Resume@plt>
    24ed:	0f 1f 00             	nopl   (%rax)

00000000000024f0 <_Z24process_timestep_alignedv>:
    24f0:	55                   	push   %rbp
    24f1:	48 89 e5             	mov    %rsp,%rbp
    24f4:	41 56                	push   %r14
    24f6:	53                   	push   %rbx
    24f7:	48 83 e4 e0          	and    $0xffffffffffffffe0,%rsp
    24fb:	48 81 ec e0 00 00 00 	sub    $0xe0,%rsp
    2502:	48 8d 1d 17 38 00 00 	lea    0x3817(%rip),%rbx        # 5d20 <__do_global_dtors_aux_fini_array_entry+0x50>
    2509:	48 89 df             	mov    %rbx,%rdi
    250c:	e8 6f fb ff ff       	call   2080 <__kmpc_global_thread_num@plt>
    2511:	48 c7 44 24 18 00 00 	movq   $0x0,0x18(%rsp)
    2518:	00 00 
    251a:	c4 e2 7d 19 05 15 1b 	vbroadcastsd 0x1b15(%rip),%ymm0        # 4038 <_IO_stdin_used+0x38>
    2521:	00 00 
    2523:	c5 fc 29 84 24 c0 00 	vmovaps %ymm0,0xc0(%rsp)
    252a:	00 00 
    252c:	c5 fc 29 84 24 a0 00 	vmovaps %ymm0,0xa0(%rsp)
    2533:	00 00 
    2535:	c4 e2 7d 19 05 02 1b 	vbroadcastsd 0x1b02(%rip),%ymm0        # 4040 <_IO_stdin_used+0x40>
    253c:	00 00 
    253e:	c5 fc 29 84 24 80 00 	vmovaps %ymm0,0x80(%rsp)
    2545:	00 00 
    2547:	c4 e2 7d 19 05 f8 1a 	vbroadcastsd 0x1af8(%rip),%ymm0        # 4048 <_IO_stdin_used+0x48>
    254e:	00 00 
    2550:	c5 fc 29 44 24 60    	vmovaps %ymm0,0x60(%rsp)
    2556:	c4 e2 7d 19 05 f1 1a 	vbroadcastsd 0x1af1(%rip),%ymm0        # 4050 <_IO_stdin_used+0x50>
    255d:	00 00 
    255f:	c5 fc 29 44 24 40    	vmovaps %ymm0,0x40(%rsp)
    2565:	c4 e2 7d 19 05 ea 1a 	vbroadcastsd 0x1aea(%rip),%ymm0        # 4058 <_IO_stdin_used+0x58>
    256c:	00 00 
    256e:	c5 fc 29 44 24 20    	vmovaps %ymm0,0x20(%rsp)
    2574:	48 89 df             	mov    %rbx,%rdi
    2577:	89 c6                	mov    %eax,%esi
    2579:	ba 04 00 00 00       	mov    $0x4,%edx
    257e:	c5 f8 77             	vzeroupper
    2581:	e8 fa fb ff ff       	call   2180 <__kmpc_push_proc_bind@plt>
    2586:	4c 8d 54 24 20       	lea    0x20(%rsp),%r10
    258b:	4c 8d 5c 24 40       	lea    0x40(%rsp),%r11
    2590:	48 8d 5c 24 60       	lea    0x60(%rsp),%rbx
    2595:	4c 8d b4 24 80 00 00 	lea    0x80(%rsp),%r14
    259c:	00 
    259d:	48 8d 3d 94 37 00 00 	lea    0x3794(%rip),%rdi        # 5d38 <__do_global_dtors_aux_fini_array_entry+0x68>
    25a4:	48 8d 15 65 00 00 00 	lea    0x65(%rip),%rdx        # 2610 <_Z24process_timestep_alignedv.omp_outlined>
    25ab:	48 8d 4c 24 18       	lea    0x18(%rsp),%rcx
    25b0:	4c 8d 84 24 c0 00 00 	lea    0xc0(%rsp),%r8
    25b7:	00 
    25b8:	4c 8d 8c 24 a0 00 00 	lea    0xa0(%rsp),%r9
    25bf:	00 
    25c0:	be 07 00 00 00       	mov    $0x7,%esi
    25c5:	31 c0                	xor    %eax,%eax
    25c7:	41 52                	push   %r10
    25c9:	41 53                	push   %r11
    25cb:	53                   	push   %rbx
    25cc:	41 56                	push   %r14
    25ce:	e8 cd fb ff ff       	call   21a0 <__kmpc_fork_call@plt>
    25d3:	48 83 c4 20          	add    $0x20,%rsp
    25d7:	c5 fb 10 44 24 18    	vmovsd 0x18(%rsp),%xmm0
    25dd:	48 8d 65 f0          	lea    -0x10(%rbp),%rsp
    25e1:	5b                   	pop    %rbx
    25e2:	41 5e                	pop    %r14
    25e4:	5d                   	pop    %rbp
    25e5:	c3                   	ret
    25e6:	66 2e 0f 1f 84 00 00 	cs nopw 0x0(%rax,%rax,1)
    25ed:	00 00 00 

00000000000025f0 <_Z24process_timestep_alignedv.omp_outlined_debug__.omp.reduction.reduction_func>:
    25f0:	48 8b 06             	mov    (%rsi),%rax
    25f3:	48 8b 0f             	mov    (%rdi),%rcx
    25f6:	c5 fb 10 01          	vmovsd (%rcx),%xmm0
    25fa:	c5 fb 5f 00          	vmaxsd (%rax),%xmm0,%xmm0
    25fe:	c5 fb 11 01          	vmovsd %xmm0,(%rcx)
    2602:	c3                   	ret
    2603:	66 66 66 66 2e 0f 1f 	data16 data16 data16 cs nopw 0x0(%rax,%rax,1)
    260a:	84 00 00 00 00 00 

0000000000002610 <_Z24process_timestep_alignedv.omp_outlined>:
    2610:	55                   	push   %rbp
    2611:	41 57                	push   %r15
    2613:	41 56                	push   %r14
    2615:	41 55                	push   %r13
    2617:	41 54                	push   %r12
    2619:	53                   	push   %rbx
    261a:	48 83 ec 48          	sub    $0x48,%rsp
    261e:	4d 89 ce             	mov    %r9,%r14
    2621:	4d 89 c7             	mov    %r8,%r15
    2624:	49 89 cc             	mov    %rcx,%r12
    2627:	48 89 54 24 28       	mov    %rdx,0x28(%rsp)
    262c:	c7 44 24 0c 00 00 00 	movl   $0x0,0xc(%rsp)
    2633:	00 
    2634:	c7 44 24 08 3d 1f 00 	movl   $0x1f3d,0x8(%rsp)
    263b:	00 
    263c:	c7 44 24 24 01 00 00 	movl   $0x1,0x24(%rsp)
    2643:	00 
    2644:	c7 44 24 20 00 00 00 	movl   $0x0,0x20(%rsp)
    264b:	00 
    264c:	48 b8 ff ff ff ff ff 	movabs $0xffefffffffffffff,%rax
    2653:	ff ef ff 
    2656:	48 89 44 24 10       	mov    %rax,0x10(%rsp)
    265b:	8b 37                	mov    (%rdi),%esi
    265d:	48 83 ec 08          	sub    $0x8,%rsp
    2661:	48 8d 44 24 2c       	lea    0x2c(%rsp),%rax
    2666:	48 8d 3d 6b 36 00 00 	lea    0x366b(%rip),%rdi        # 5cd8 <__do_global_dtors_aux_fini_array_entry+0x8>
    266d:	48 8d 4c 24 28       	lea    0x28(%rsp),%rcx
    2672:	4c 8d 44 24 14       	lea    0x14(%rsp),%r8
    2677:	4c 8d 4c 24 10       	lea    0x10(%rsp),%r9
    267c:	89 74 24 24          	mov    %esi,0x24(%rsp)
    2680:	ba 22 00 00 00       	mov    $0x22,%edx
    2685:	6a 01                	push   $0x1
    2687:	6a 01                	push   $0x1
    2689:	50                   	push   %rax
    268a:	e8 c1 fa ff ff       	call   2150 <__kmpc_for_static_init_4@plt>
    268f:	48 83 c4 20          	add    $0x20,%rsp
    2693:	8b 4c 24 08          	mov    0x8(%rsp),%ecx
    2697:	81 f9 3d 1f 00 00    	cmp    $0x1f3d,%ecx
    269d:	b8 3d 1f 00 00       	mov    $0x1f3d,%eax
    26a2:	0f 4c c1             	cmovl  %ecx,%eax
    26a5:	89 44 24 08          	mov    %eax,0x8(%rsp)
    26a9:	48 63 5c 24 0c       	movslq 0xc(%rsp),%rbx
    26ae:	39 c3                	cmp    %eax,%ebx
    26b0:	0f 8e 92 00 00 00    	jle    2748 <_Z24process_timestep_alignedv.omp_outlined+0x138>
    26b6:	48 8d 3d 33 36 00 00 	lea    0x3633(%rip),%rdi        # 5cf0 <__do_global_dtors_aux_fini_array_entry+0x20>
    26bd:	8b 5c 24 1c          	mov    0x1c(%rsp),%ebx
    26c1:	89 de                	mov    %ebx,%esi
    26c3:	c5 f8 77             	vzeroupper
    26c6:	e8 75 f9 ff ff       	call   2040 <__kmpc_for_static_fini@plt>
    26cb:	48 8d 44 24 10       	lea    0x10(%rsp),%rax
    26d0:	48 89 44 24 40       	mov    %rax,0x40(%rsp)
    26d5:	48 83 ec 08          	sub    $0x8,%rsp
    26d9:	48 8d 05 18 3a 00 00 	lea    0x3a18(%rip),%rax        # 60f8 <.gomp_critical_user_.reduction.var>
    26e0:	48 8d 3d 21 36 00 00 	lea    0x3621(%rip),%rdi        # 5d08 <__do_global_dtors_aux_fini_array_entry+0x38>
    26e7:	4c 8d 0d 02 ff ff ff 	lea    -0xfe(%rip),%r9        # 25f0 <_Z24process_timestep_alignedv.omp_outlined_debug__.omp.reduction.reduction_func>
    26ee:	4c 8d 44 24 48       	lea    0x48(%rsp),%r8
    26f3:	b9 08 00 00 00       	mov    $0x8,%ecx
    26f8:	89 de                	mov    %ebx,%esi
    26fa:	ba 01 00 00 00       	mov    $0x1,%edx
    26ff:	50                   	push   %rax
    2700:	e8 6b f9 ff ff       	call   2070 <__kmpc_reduce_nowait@plt>
    2705:	48 83 c4 10          	add    $0x10,%rsp
    2709:	83 f8 02             	cmp    $0x2,%eax
    270c:	0f 84 74 06 00 00    	je     2d86 <_Z24process_timestep_alignedv.omp_outlined+0x776>
    2712:	83 f8 01             	cmp    $0x1,%eax
    2715:	48 8b 44 24 28       	mov    0x28(%rsp),%rax
    271a:	0f 85 95 06 00 00    	jne    2db5 <_Z24process_timestep_alignedv.omp_outlined+0x7a5>
    2720:	c5 fb 10 00          	vmovsd (%rax),%xmm0
    2724:	c5 fb 5f 44 24 10    	vmaxsd 0x10(%rsp),%xmm0,%xmm0
    272a:	c5 fb 11 00          	vmovsd %xmm0,(%rax)
    272e:	48 8d 3d d3 35 00 00 	lea    0x35d3(%rip),%rdi        # 5d08 <__do_global_dtors_aux_fini_array_entry+0x38>
    2735:	48 8d 15 bc 39 00 00 	lea    0x39bc(%rip),%rdx        # 60f8 <.gomp_critical_user_.reduction.var>
    273c:	89 de                	mov    %ebx,%esi
    273e:	e8 5d f9 ff ff       	call   20a0 <__kmpc_end_reduce_nowait@plt>
    2743:	e9 6d 06 00 00       	jmp    2db5 <_Z24process_timestep_alignedv.omp_outlined+0x7a5>
    2748:	48 8b 8c 24 90 00 00 	mov    0x90(%rsp),%rcx
    274f:	00 
    2750:	48 8b 94 24 88 00 00 	mov    0x88(%rsp),%rdx
    2757:	00 
    2758:	48 8b b4 24 80 00 00 	mov    0x80(%rsp),%rsi
    275f:	00 
    2760:	48 8b 3d 79 39 00 00 	mov    0x3979(%rip),%rdi        # 60e0 <Phi_grid>
    2767:	4c 8b 05 82 39 00 00 	mov    0x3982(%rip),%r8        # 60f0 <rho_grid>
    276e:	4c 8b 0d 73 39 00 00 	mov    0x3973(%rip),%r9        # 60e8 <Phi_grid_new>
    2775:	ff c0                	inc    %eax
    2777:	48 98                	cltq
    2779:	48 89 44 24 30       	mov    %rax,0x30(%rsp)
    277e:	48 69 c3 00 fa 00 00 	imul   $0xfa00,%rbx,%rax
    2785:	4e 8d 1c 08          	lea    (%rax,%r9,1),%r11
    2789:	49 81 c3 20 fa 00 00 	add    $0xfa20,%r11
    2790:	4c 8d ac 38 40 f4 01 	lea    0x1f440(%rax,%rdi,1),%r13
    2797:	00 
    2798:	4a 8d ac 00 20 f4 01 	lea    0x1f420(%rax,%r8,1),%rbp
    279f:	00 
    27a0:	c5 fb 10 2d b8 18 00 	vmovsd 0x18b8(%rip),%xmm5        # 4060 <_IO_stdin_used+0x60>
    27a7:	00 
    27a8:	c5 fb 10 05 88 18 00 	vmovsd 0x1888(%rip),%xmm0        # 4038 <_IO_stdin_used+0x38>
    27af:	00 
    27b0:	c5 fb 10 0d 88 18 00 	vmovsd 0x1888(%rip),%xmm1        # 4040 <_IO_stdin_used+0x40>
    27b7:	00 
    27b8:	c5 fb 10 15 88 18 00 	vmovsd 0x1888(%rip),%xmm2        # 4048 <_IO_stdin_used+0x48>
    27bf:	00 
    27c0:	c5 7b 10 15 88 18 00 	vmovsd 0x1888(%rip),%xmm10        # 4050 <_IO_stdin_used+0x50>
    27c7:	00 
    27c8:	c5 7b 12 1d 98 18 00 	vmovddup 0x1898(%rip),%xmm11        # 4068 <_IO_stdin_used+0x68>
    27cf:	00 
    27d0:	e9 48 02 00 00       	jmp    2a1d <_Z24process_timestep_alignedv.omp_outlined+0x40d>
    27d5:	66 66 2e 0f 1f 84 00 	data16 cs nopw 0x0(%rax,%rax,1)
    27dc:	00 00 00 00 
    27e0:	c4 a1 7b 10 b4 d7 e8 	vmovsd 0xf9e8(%rdi,%r10,8),%xmm6
    27e7:	f9 00 00 
    27ea:	c4 a1 4b 58 b4 d7 d8 	vaddsd 0xf9d8(%rdi,%r10,8),%xmm6,%xmm6
    27f1:	f9 00 00 
    27f4:	c4 a1 4b 58 b4 d7 d8 	vaddsd 0x2edd8(%rdi,%r10,8),%xmm6,%xmm6
    27fb:	ed 02 00 
    27fe:	c5 fb 10 bc df e8 f9 	vmovsd 0xf9e8(%rdi,%rbx,8),%xmm7
    2805:	00 00 
    2807:	c4 a1 4b 58 b4 d7 e8 	vaddsd 0x2ede8(%rdi,%r10,8),%xmm6,%xmm6
    280e:	ed 02 00 
    2811:	c4 01 7b 10 84 d0 e0 	vmovsd 0x2ede0(%r8,%r10,8),%xmm8
    2818:	ed 02 00 
    281b:	c4 01 3b 58 84 d0 e0 	vaddsd 0xf9e0(%r8,%r10,8),%xmm8,%xmm8
    2822:	f9 00 00 
    2825:	c4 41 3b 58 84 d8 d8 	vaddsd 0xf9d8(%r8,%rbx,8),%xmm8,%xmm8
    282c:	f9 00 00 
    282f:	c4 41 3b 58 84 d8 e8 	vaddsd 0xf9e8(%r8,%rbx,8),%xmm8,%xmm8
    2836:	f9 00 00 
    2839:	c5 c3 58 bc df d8 f9 	vaddsd 0xf9d8(%rdi,%rbx,8),%xmm7,%xmm7
    2840:	00 00 
    2842:	c4 a1 43 58 bc d7 e0 	vaddsd 0xf9e0(%rdi,%r10,8),%xmm7,%xmm7
    2849:	f9 00 00 
    284c:	c4 a1 43 58 bc d7 e0 	vaddsd 0x2ede0(%rdi,%r10,8),%xmm7,%xmm7
    2853:	ed 02 00 
    2856:	c5 f9 28 c3          	vmovapd %xmm3,%xmm0
    285a:	c5 c3 59 fb          	vmulsd %xmm3,%xmm7,%xmm7
    285e:	c5 fb 10 0d da 17 00 	vmovsd 0x17da(%rip),%xmm1        # 4040 <_IO_stdin_used+0x40>
    2865:	00 
    2866:	c4 e2 f1 b9 fe       	vfmadd231sd %xmm6,%xmm1,%xmm7
    286b:	c5 fb 10 15 d5 17 00 	vmovsd 0x17d5(%rip),%xmm2        # 4048 <_IO_stdin_used+0x48>
    2872:	00 
    2873:	c4 c2 e9 b9 bc d8 e0 	vfmadd231sd 0xf9e0(%r8,%rbx,8),%xmm2,%xmm7
    287a:	f9 00 00 
    287d:	c5 79 28 d4          	vmovapd %xmm4,%xmm10
    2881:	c4 c2 d9 b9 f8       	vfmadd231sd %xmm8,%xmm4,%xmm7
    2886:	c4 c1 7b 11 bc d9 e0 	vmovsd %xmm7,0xf9e0(%r9,%rbx,8)
    288d:	f9 00 00 
    2890:	c5 fb 10 b4 df e0 f9 	vmovsd 0xf9e0(%rdi,%rbx,8),%xmm6
    2897:	00 00 
    2899:	c4 21 7b 10 84 d7 f0 	vmovsd 0xf9f0(%rdi,%r10,8),%xmm8
    28a0:	f9 00 00 
    28a3:	c4 21 3b 58 84 d7 e0 	vaddsd 0xf9e0(%rdi,%r10,8),%xmm8,%xmm8
    28aa:	f9 00 00 
    28ad:	c4 21 3b 58 84 d7 e0 	vaddsd 0x2ede0(%rdi,%r10,8),%xmm8,%xmm8
    28b4:	ed 02 00 
    28b7:	c5 c3 5c fe          	vsubsd %xmm6,%xmm7,%xmm7
    28bb:	c4 21 3b 58 84 d7 f0 	vaddsd 0x2edf0(%rdi,%r10,8),%xmm8,%xmm8
    28c2:	ed 02 00 
    28c5:	c4 01 7b 10 8c d0 e8 	vmovsd 0x2ede8(%r8,%r10,8),%xmm9
    28cc:	ed 02 00 
    28cf:	c4 01 33 58 8c d0 e8 	vaddsd 0xf9e8(%r8,%r10,8),%xmm9,%xmm9
    28d6:	f9 00 00 
    28d9:	c4 41 33 58 8c d8 e0 	vaddsd 0xf9e0(%r8,%rbx,8),%xmm9,%xmm9
    28e0:	f9 00 00 
    28e3:	c4 41 33 58 8c d8 f0 	vaddsd 0xf9f0(%r8,%rbx,8),%xmm9,%xmm9
    28ea:	f9 00 00 
    28ed:	c5 cb 58 b4 df f0 f9 	vaddsd 0xf9f0(%rdi,%rbx,8),%xmm6,%xmm6
    28f4:	00 00 
    28f6:	c4 a1 4b 58 b4 d7 e8 	vaddsd 0xf9e8(%rdi,%r10,8),%xmm6,%xmm6
    28fd:	f9 00 00 
    2900:	c4 a1 4b 58 b4 d7 e8 	vaddsd 0x2ede8(%rdi,%r10,8),%xmm6,%xmm6
    2907:	ed 02 00 
    290a:	c5 cb 59 f3          	vmulsd %xmm3,%xmm6,%xmm6
    290e:	c4 c2 f1 b9 f0       	vfmadd231sd %xmm8,%xmm1,%xmm6
    2913:	c4 c2 e9 b9 b4 d8 e8 	vfmadd231sd 0xf9e8(%r8,%rbx,8),%xmm2,%xmm6
    291a:	f9 00 00 
    291d:	c4 c2 d9 b9 f1       	vfmadd231sd %xmm9,%xmm4,%xmm6
    2922:	c4 c1 7b 11 b4 d9 e8 	vmovsd %xmm6,0xf9e8(%r9,%rbx,8)
    2929:	f9 00 00 
    292c:	c5 7b 10 84 df e8 f9 	vmovsd 0xf9e8(%rdi,%rbx,8),%xmm8
    2933:	00 00 
    2935:	c4 c1 4b 5c f0       	vsubsd %xmm8,%xmm6,%xmm6
    293a:	c4 21 7b 10 8c d7 f8 	vmovsd 0xf9f8(%rdi,%r10,8),%xmm9
    2941:	f9 00 00 
    2944:	c4 21 33 58 8c d7 e8 	vaddsd 0xf9e8(%rdi,%r10,8),%xmm9,%xmm9
    294b:	f9 00 00 
    294e:	c4 21 33 58 8c d7 e8 	vaddsd 0x2ede8(%rdi,%r10,8),%xmm9,%xmm9
    2955:	ed 02 00 
    2958:	c4 21 33 58 8c d7 f8 	vaddsd 0x2edf8(%rdi,%r10,8),%xmm9,%xmm9
    295f:	ed 02 00 
    2962:	c5 3b 58 84 df f8 f9 	vaddsd 0xf9f8(%rdi,%rbx,8),%xmm8,%xmm8
    2969:	00 00 
    296b:	c4 21 3b 58 84 d7 f0 	vaddsd 0xf9f0(%rdi,%r10,8),%xmm8,%xmm8
    2972:	f9 00 00 
    2975:	c5 7b 12 1d eb 16 00 	vmovddup 0x16eb(%rip),%xmm11        # 4068 <_IO_stdin_used+0x68>
    297c:	00 
    297d:	c5 a1 54 ff          	vandpd %xmm7,%xmm11,%xmm7
    2981:	c4 21 3b 58 84 d7 f0 	vaddsd 0x2edf0(%rdi,%r10,8),%xmm8,%xmm8
    2988:	ed 02 00 
    298b:	c5 3b 59 c3          	vmulsd %xmm3,%xmm8,%xmm8
    298f:	c4 42 f1 b9 c1       	vfmadd231sd %xmm9,%xmm1,%xmm8
    2994:	c4 01 7b 10 8c d0 f0 	vmovsd 0x2edf0(%r8,%r10,8),%xmm9
    299b:	ed 02 00 
    299e:	c4 01 33 58 8c d0 f0 	vaddsd 0xf9f0(%r8,%r10,8),%xmm9,%xmm9
    29a5:	f9 00 00 
    29a8:	c4 41 33 58 8c d8 e8 	vaddsd 0xf9e8(%r8,%rbx,8),%xmm9,%xmm9
    29af:	f9 00 00 
    29b2:	c4 41 33 58 8c d8 f8 	vaddsd 0xf9f8(%r8,%rbx,8),%xmm9,%xmm9
    29b9:	f9 00 00 
    29bc:	c5 a1 54 f6          	vandpd %xmm6,%xmm11,%xmm6
    29c0:	c4 42 e9 b9 84 d8 f0 	vfmadd231sd 0xf9f0(%r8,%rbx,8),%xmm2,%xmm8
    29c7:	f9 00 00 
    29ca:	c4 42 d9 b9 c1       	vfmadd231sd %xmm9,%xmm4,%xmm8
    29cf:	c4 41 7b 11 84 d9 f0 	vmovsd %xmm8,0xf9f0(%r9,%rbx,8)
    29d6:	f9 00 00 
    29d9:	c5 cb 5f f7          	vmaxsd %xmm7,%xmm6,%xmm6
    29dd:	c5 bb 5c bc df f0 f9 	vsubsd 0xf9f0(%rdi,%rbx,8),%xmm8,%xmm7
    29e4:	00 00 
    29e6:	c5 a1 54 ff          	vandpd %xmm7,%xmm11,%xmm7
    29ea:	c5 c3 5f f6          	vmaxsd %xmm6,%xmm7,%xmm6
    29ee:	c5 cb 5f ed          	vmaxsd %xmm5,%xmm6,%xmm5
    29f2:	c5 fb 11 6c 24 10    	vmovsd %xmm5,0x10(%rsp)
    29f8:	49 81 c3 00 fa 00 00 	add    $0xfa00,%r11
    29ff:	49 81 c5 00 fa 00 00 	add    $0xfa00,%r13
    2a06:	48 81 c5 00 fa 00 00 	add    $0xfa00,%rbp
    2a0d:	48 8b 5c 24 38       	mov    0x38(%rsp),%rbx
    2a12:	48 3b 5c 24 30       	cmp    0x30(%rsp),%rbx
    2a17:	0f 84 99 fc ff ff    	je     26b6 <_Z24process_timestep_alignedv.omp_outlined+0xa6>
    2a1d:	4c 69 d3 40 1f 00 00 	imul   $0x1f40,%rbx,%r10
    2a24:	48 ff c3             	inc    %rbx
    2a27:	48 89 5c 24 38       	mov    %rbx,0x38(%rsp)
    2a2c:	49 8d 9a 40 1f 00 00 	lea    0x1f40(%r10),%rbx
    2a33:	c4 a1 7b 10 74 d7 10 	vmovsd 0x10(%rdi,%r10,8),%xmm6
    2a3a:	c4 a1 4b 58 34 d7    	vaddsd (%rdi,%r10,8),%xmm6,%xmm6
    2a40:	c4 a1 4b 58 b4 d7 00 	vaddsd 0x1f400(%rdi,%r10,8),%xmm6,%xmm6
    2a47:	f4 01 00 
    2a4a:	c4 a1 4b 58 b4 d7 10 	vaddsd 0x1f410(%rdi,%r10,8),%xmm6,%xmm6
    2a51:	f4 01 00 
    2a54:	c4 a1 7b 10 bc d7 10 	vmovsd 0xfa10(%rdi,%r10,8),%xmm7
    2a5b:	fa 00 00 
    2a5e:	c4 01 7b 10 84 d0 08 	vmovsd 0x1f408(%r8,%r10,8),%xmm8
    2a65:	f4 01 00 
    2a68:	c4 01 3b 58 44 d0 08 	vaddsd 0x8(%r8,%r10,8),%xmm8,%xmm8
    2a6f:	c4 01 3b 58 84 d0 00 	vaddsd 0xfa00(%r8,%r10,8),%xmm8,%xmm8
    2a76:	fa 00 00 
    2a79:	c4 01 3b 58 84 d0 10 	vaddsd 0xfa10(%r8,%r10,8),%xmm8,%xmm8
    2a80:	fa 00 00 
    2a83:	c4 a1 43 58 bc d7 00 	vaddsd 0xfa00(%rdi,%r10,8),%xmm7,%xmm7
    2a8a:	fa 00 00 
    2a8d:	c4 a1 43 58 7c d7 08 	vaddsd 0x8(%rdi,%r10,8),%xmm7,%xmm7
    2a94:	c4 a1 43 58 bc d7 08 	vaddsd 0x1f408(%rdi,%r10,8),%xmm7,%xmm7
    2a9b:	f4 01 00 
    2a9e:	c5 c3 59 f8          	vmulsd %xmm0,%xmm7,%xmm7
    2aa2:	c4 e2 f1 b9 fe       	vfmadd231sd %xmm6,%xmm1,%xmm7
    2aa7:	c4 82 e9 b9 bc d0 08 	vfmadd231sd 0xfa08(%r8,%r10,8),%xmm2,%xmm7
    2aae:	fa 00 00 
    2ab1:	c4 c2 a9 b9 f8       	vfmadd231sd %xmm8,%xmm10,%xmm7
    2ab6:	c4 81 7b 11 bc d1 08 	vmovsd %xmm7,0xfa08(%r9,%r10,8)
    2abd:	fa 00 00 
    2ac0:	c4 a1 7b 10 b4 d7 08 	vmovsd 0xfa08(%rdi,%r10,8),%xmm6
    2ac7:	fa 00 00 
    2aca:	c5 c3 5c fe          	vsubsd %xmm6,%xmm7,%xmm7
    2ace:	c4 21 7b 10 44 d7 18 	vmovsd 0x18(%rdi,%r10,8),%xmm8
    2ad5:	c4 21 3b 58 44 d7 08 	vaddsd 0x8(%rdi,%r10,8),%xmm8,%xmm8
    2adc:	c4 21 3b 58 84 d7 08 	vaddsd 0x1f408(%rdi,%r10,8),%xmm8,%xmm8
    2ae3:	f4 01 00 
    2ae6:	c4 21 3b 58 84 d7 18 	vaddsd 0x1f418(%rdi,%r10,8),%xmm8,%xmm8
    2aed:	f4 01 00 
    2af0:	c5 a1 54 ff          	vandpd %xmm7,%xmm11,%xmm7
    2af4:	c4 01 7b 10 8c d0 10 	vmovsd 0x1f410(%r8,%r10,8),%xmm9
    2afb:	f4 01 00 
    2afe:	c4 01 33 58 4c d0 10 	vaddsd 0x10(%r8,%r10,8),%xmm9,%xmm9
    2b05:	c4 01 33 58 8c d0 08 	vaddsd 0xfa08(%r8,%r10,8),%xmm9,%xmm9
    2b0c:	fa 00 00 
    2b0f:	c4 01 33 58 8c d0 18 	vaddsd 0xfa18(%r8,%r10,8),%xmm9,%xmm9
    2b16:	fa 00 00 
    2b19:	c4 a1 4b 58 b4 d7 18 	vaddsd 0xfa18(%rdi,%r10,8),%xmm6,%xmm6
    2b20:	fa 00 00 
    2b23:	c4 a1 4b 58 74 d7 10 	vaddsd 0x10(%rdi,%r10,8),%xmm6,%xmm6
    2b2a:	c4 a1 4b 58 b4 d7 10 	vaddsd 0x1f410(%rdi,%r10,8),%xmm6,%xmm6
    2b31:	f4 01 00 
    2b34:	c5 cb 59 f0          	vmulsd %xmm0,%xmm6,%xmm6
    2b38:	c4 c2 f1 b9 f0       	vfmadd231sd %xmm8,%xmm1,%xmm6
    2b3d:	c4 82 e9 b9 b4 d0 10 	vfmadd231sd 0xfa10(%r8,%r10,8),%xmm2,%xmm6
    2b44:	fa 00 00 
    2b47:	c5 c3 5f ed          	vmaxsd %xmm5,%xmm7,%xmm5
    2b4b:	c4 c2 a9 b9 f1       	vfmadd231sd %xmm9,%xmm10,%xmm6
    2b50:	c4 81 7b 11 b4 d1 10 	vmovsd %xmm6,0xfa10(%r9,%r10,8)
    2b57:	fa 00 00 
    2b5a:	c4 a1 7b 10 bc d7 10 	vmovsd 0xfa10(%rdi,%r10,8),%xmm7
    2b61:	fa 00 00 
    2b64:	c4 21 7b 10 44 d7 20 	vmovsd 0x20(%rdi,%r10,8),%xmm8
    2b6b:	c4 21 3b 58 44 d7 10 	vaddsd 0x10(%rdi,%r10,8),%xmm8,%xmm8
    2b72:	c4 21 3b 58 84 d7 10 	vaddsd 0x1f410(%rdi,%r10,8),%xmm8,%xmm8
    2b79:	f4 01 00 
    2b7c:	c4 21 3b 58 84 d7 20 	vaddsd 0x1f420(%rdi,%r10,8),%xmm8,%xmm8
    2b83:	f4 01 00 
    2b86:	c5 cb 5c f7          	vsubsd %xmm7,%xmm6,%xmm6
    2b8a:	c4 01 7b 10 8c d0 18 	vmovsd 0x1f418(%r8,%r10,8),%xmm9
    2b91:	f4 01 00 
    2b94:	c4 01 33 58 4c d0 18 	vaddsd 0x18(%r8,%r10,8),%xmm9,%xmm9
    2b9b:	c4 01 33 58 8c d0 10 	vaddsd 0xfa10(%r8,%r10,8),%xmm9,%xmm9
    2ba2:	fa 00 00 
    2ba5:	c4 01 33 58 8c d0 20 	vaddsd 0xfa20(%r8,%r10,8),%xmm9,%xmm9
    2bac:	fa 00 00 
    2baf:	c4 a1 43 58 bc d7 20 	vaddsd 0xfa20(%rdi,%r10,8),%xmm7,%xmm7
    2bb6:	fa 00 00 
    2bb9:	c4 a1 43 58 7c d7 18 	vaddsd 0x18(%rdi,%r10,8),%xmm7,%xmm7
    2bc0:	c4 a1 43 58 bc d7 18 	vaddsd 0x1f418(%rdi,%r10,8),%xmm7,%xmm7
    2bc7:	f4 01 00 
    2bca:	c5 f9 28 d8          	vmovapd %xmm0,%xmm3
    2bce:	c5 c3 59 f8          	vmulsd %xmm0,%xmm7,%xmm7
    2bd2:	c4 c2 f1 b9 f8       	vfmadd231sd %xmm8,%xmm1,%xmm7
    2bd7:	c4 82 e9 b9 bc d0 18 	vfmadd231sd 0xfa18(%r8,%r10,8),%xmm2,%xmm7
    2bde:	fa 00 00 
    2be1:	c5 a1 54 f6          	vandpd %xmm6,%xmm11,%xmm6
    2be5:	c5 79 29 d4          	vmovapd %xmm10,%xmm4
    2be9:	c4 c2 a9 b9 f9       	vfmadd231sd %xmm9,%xmm10,%xmm7
    2bee:	c4 81 7b 11 bc d1 18 	vmovsd %xmm7,0xfa18(%r9,%r10,8)
    2bf5:	fa 00 00 
    2bf8:	c4 a1 43 5c bc d7 18 	vsubsd 0xfa18(%rdi,%r10,8),%xmm7,%xmm7
    2bff:	fa 00 00 
    2c02:	c5 a1 54 ff          	vandpd %xmm7,%xmm11,%xmm7
    2c06:	c5 c3 5f f6          	vmaxsd %xmm6,%xmm7,%xmm6
    2c0a:	c5 cb 5f ed          	vmaxsd %xmm5,%xmm6,%xmm5
    2c0e:	c4 a1 7d 28 3c d7    	vmovapd (%rdi,%r10,8),%ymm7
    2c14:	c4 a1 7d 28 74 d7 20 	vmovapd 0x20(%rdi,%r10,8),%ymm6
    2c1b:	c4 21 7d 28 84 d7 20 	vmovapd 0xfa20(%rdi,%r10,8),%ymm8
    2c22:	fa 00 00 
    2c25:	c4 21 7d 28 8c d7 20 	vmovapd 0x1f420(%rdi,%r10,8),%ymm9
    2c2c:	f4 01 00 
    2c2f:	c4 01 7d 28 b4 d0 00 	vmovapd 0xfa00(%r8,%r10,8),%ymm14
    2c36:	fa 00 00 
    2c39:	c4 01 7d 28 9c d0 20 	vmovapd 0xfa20(%r8,%r10,8),%ymm11
    2c40:	fa 00 00 
    2c43:	c4 21 7d 28 94 d7 00 	vmovapd 0xfa00(%rdi,%r10,8),%ymm10
    2c4a:	fa 00 00 
    2c4d:	c4 21 7d 28 bc d7 00 	vmovapd 0x1f400(%rdi,%r10,8),%ymm15
    2c54:	f4 01 00 
    2c57:	31 c0                	xor    %eax,%eax
    2c59:	0f 1f 80 00 00 00 00 	nopl   0x0(%rax)
    2c60:	c5 fd 28 c7          	vmovapd %ymm7,%ymm0
    2c64:	c5 7d 29 d1          	vmovapd %ymm10,%ymm1
    2c68:	c4 41 7d 28 d0       	vmovapd %ymm8,%ymm10
    2c6d:	c5 fd 28 fe          	vmovapd %ymm6,%ymm7
    2c71:	c4 c1 7d 28 b4 c5 00 	vmovapd -0x1f400(%r13,%rax,8),%ymm6
    2c78:	0c fe ff 
    2c7b:	c4 41 7d 28 84 c5 00 	vmovapd -0xfa00(%r13,%rax,8),%ymm8
    2c82:	06 ff ff 
    2c85:	c4 41 7d 28 64 c5 00 	vmovapd 0x0(%r13,%rax,8),%ymm12
    2c8c:	c5 7d 28 ac c5 20 06 	vmovapd -0xf9e0(%rbp,%rax,8),%ymm13
    2c93:	ff ff 
    2c95:	c4 e3 7d 06 c7 21    	vperm2f128 $0x21,%ymm7,%ymm0,%ymm0
    2c9b:	c5 fd c6 c7 05       	vshufpd $0x5,%ymm7,%ymm0,%ymm0
    2ca0:	c4 e3 45 06 d6 21    	vperm2f128 $0x21,%ymm6,%ymm7,%ymm2
    2ca6:	c5 c5 c6 d2 05       	vshufpd $0x5,%ymm2,%ymm7,%ymm2
    2cab:	c5 ed 58 c0          	vaddpd %ymm0,%ymm2,%ymm0
    2caf:	c4 c3 75 06 ca 21    	vperm2f128 $0x21,%ymm10,%ymm1,%ymm1
    2cb5:	c4 c1 75 c6 ca 05    	vshufpd $0x5,%ymm10,%ymm1,%ymm1
    2cbb:	c4 c3 2d 06 d0 21    	vperm2f128 $0x21,%ymm8,%ymm10,%ymm2
    2cc1:	c5 ad c6 d2 05       	vshufpd $0x5,%ymm2,%ymm10,%ymm2
    2cc6:	c5 f5 58 ca          	vaddpd %ymm2,%ymm1,%ymm1
    2cca:	c4 c3 05 06 d1 21    	vperm2f128 $0x21,%ymm9,%ymm15,%ymm2
    2cd0:	c4 c1 6d c6 d1 05    	vshufpd $0x5,%ymm9,%ymm2,%ymm2
    2cd6:	c4 43 35 06 fc 21    	vperm2f128 $0x21,%ymm12,%ymm9,%ymm15
    2cdc:	c4 41 35 c6 ff 05    	vshufpd $0x5,%ymm15,%ymm9,%ymm15
    2ce2:	c5 85 58 d2          	vaddpd %ymm2,%ymm15,%ymm2
    2ce6:	c5 ed 58 c0          	vaddpd %ymm0,%ymm2,%ymm0
    2cea:	c4 c3 0d 06 d3 21    	vperm2f128 $0x21,%ymm11,%ymm14,%ymm2
    2cf0:	c4 c1 6d c6 d3 05    	vshufpd $0x5,%ymm11,%ymm2,%ymm2
    2cf6:	c4 43 25 06 f5 21    	vperm2f128 $0x21,%ymm13,%ymm11,%ymm14
    2cfc:	c4 41 25 c6 f6 05    	vshufpd $0x5,%ymm14,%ymm11,%ymm14
    2d02:	c5 8d 58 d2          	vaddpd %ymm2,%ymm14,%ymm2
    2d06:	c4 c1 75 59 0c 24    	vmulpd (%r12),%ymm1,%ymm1
    2d0c:	c5 35 58 f7          	vaddpd %ymm7,%ymm9,%ymm14
    2d10:	c4 42 f5 98 37       	vfmadd132pd (%r15),%ymm1,%ymm14
    2d15:	c4 42 fd b8 36       	vfmadd231pd (%r14),%ymm0,%ymm14
    2d1a:	c4 62 a5 b8 36       	vfmadd231pd (%rsi),%ymm11,%ymm14
    2d1f:	c5 ed 58 84 c5 00 0c 	vaddpd -0x1f400(%rbp,%rax,8),%ymm2,%ymm0
    2d26:	fe ff 
    2d28:	c5 fd 58 44 c5 00    	vaddpd 0x0(%rbp,%rax,8),%ymm0,%ymm0
    2d2e:	c4 e2 8d 98 02       	vfmadd132pd (%rdx),%ymm14,%ymm0
    2d33:	c4 c1 7d 29 04 c3    	vmovapd %ymm0,(%r11,%rax,8)
    2d39:	48 83 c0 04          	add    $0x4,%rax
    2d3d:	c4 c1 7d 5c c2       	vsubpd %ymm10,%ymm0,%ymm0
    2d42:	c5 fd 28 09          	vmovapd (%rcx),%ymm1
    2d46:	c5 f5 55 c0          	vandnpd %ymm0,%ymm1,%ymm0
    2d4a:	c4 e3 7d 19 c1 01    	vextractf128 $0x1,%ymm0,%xmm1
    2d50:	c5 f9 5f c1          	vmaxpd %xmm1,%xmm0,%xmm0
    2d54:	c5 f9 c6 c8 01       	vshufpd $0x1,%xmm0,%xmm0,%xmm1
    2d59:	c5 f9 5f c1          	vmaxpd %xmm1,%xmm0,%xmm0
    2d5d:	c5 fb 5f ed          	vmaxsd %xmm5,%xmm0,%xmm5
    2d61:	48 3d 37 1f 00 00    	cmp    $0x1f37,%rax
    2d67:	0f 87 73 fa ff ff    	ja     27e0 <_Z24process_timestep_alignedv.omp_outlined+0x1d0>
    2d6d:	c4 41 7d 28 f3       	vmovapd %ymm11,%ymm14
    2d72:	c4 41 7d 28 f9       	vmovapd %ymm9,%ymm15
    2d77:	c4 41 7d 28 dd       	vmovapd %ymm13,%ymm11
    2d7c:	c4 41 7d 28 cc       	vmovapd %ymm12,%ymm9
    2d81:	e9 da fe ff ff       	jmp    2c60 <_Z24process_timestep_alignedv.omp_outlined+0x650>
    2d86:	48 8b 54 24 28       	mov    0x28(%rsp),%rdx
    2d8b:	48 8b 02             	mov    (%rdx),%rax
    2d8e:	c5 fb 10 44 24 10    	vmovsd 0x10(%rsp),%xmm0
    2d94:	66 66 66 2e 0f 1f 84 	data16 data16 cs nopw 0x0(%rax,%rax,1)
    2d9b:	00 00 00 00 00 
    2da0:	c4 e1 f9 6e c8       	vmovq  %rax,%xmm1
    2da5:	c5 f3 5f c8          	vmaxsd %xmm0,%xmm1,%xmm1
    2da9:	c4 e1 f9 7e c9       	vmovq  %xmm1,%rcx
    2dae:	f0 48 0f b1 0a       	lock cmpxchg %rcx,(%rdx)
    2db3:	75 eb                	jne    2da0 <_Z24process_timestep_alignedv.omp_outlined+0x790>
    2db5:	48 83 c4 48          	add    $0x48,%rsp
    2db9:	5b                   	pop    %rbx
    2dba:	41 5c                	pop    %r12
    2dbc:	41 5d                	pop    %r13
    2dbe:	41 5e                	pop    %r14
    2dc0:	41 5f                	pop    %r15
    2dc2:	5d                   	pop    %rbp
    2dc3:	c3                   	ret
    2dc4:	66 66 66 2e 0f 1f 84 	data16 data16 cs nopw 0x0(%rax,%rax,1)
    2dcb:	00 00 00 00 00 

0000000000002dd0 <main>:
    2dd0:	55                   	push   %rbp
    2dd1:	48 89 e5             	mov    %rsp,%rbp
    2dd4:	41 57                	push   %r15
    2dd6:	41 56                	push   %r14
    2dd8:	41 55                	push   %r13
    2dda:	41 54                	push   %r12
    2ddc:	53                   	push   %rbx
    2ddd:	48 83 e4 e0          	and    $0xffffffffffffffe0,%rsp
    2de1:	48 81 ec a0 01 00 00 	sub    $0x1a0,%rsp
    2de8:	48 8d 3d 79 2f 00 00 	lea    0x2f79(%rip),%rdi        # 5d68 <__do_global_dtors_aux_fini_array_entry+0x98>
    2def:	e8 8c f2 ff ff       	call   2080 <__kmpc_global_thread_num@plt>
    2df4:	89 c3                	mov    %eax,%ebx
    2df6:	48 89 e7             	mov    %rsp,%rdi
    2df9:	be 20 00 00 00       	mov    $0x20,%esi
    2dfe:	ba 00 80 84 1e       	mov    $0x1e848000,%edx
    2e03:	e8 88 f2 ff ff       	call   2090 <posix_memalign@plt>
    2e08:	45 31 f6             	xor    %r14d,%r14d
    2e0b:	b9 00 00 00 00       	mov    $0x0,%ecx
    2e10:	85 c0                	test   %eax,%eax
    2e12:	75 04                	jne    2e18 <main+0x48>
    2e14:	48 8b 0c 24          	mov    (%rsp),%rcx
    2e18:	48 89 0d c1 32 00 00 	mov    %rcx,0x32c1(%rip)        # 60e0 <Phi_grid>
    2e1f:	48 89 e7             	mov    %rsp,%rdi
    2e22:	be 20 00 00 00       	mov    $0x20,%esi
    2e27:	ba 00 80 84 1e       	mov    $0x1e848000,%edx
    2e2c:	e8 5f f2 ff ff       	call   2090 <posix_memalign@plt>
    2e31:	b9 00 00 00 00       	mov    $0x0,%ecx
    2e36:	85 c0                	test   %eax,%eax
    2e38:	75 04                	jne    2e3e <main+0x6e>
    2e3a:	48 8b 0c 24          	mov    (%rsp),%rcx
    2e3e:	48 89 0d a3 32 00 00 	mov    %rcx,0x32a3(%rip)        # 60e8 <Phi_grid_new>
    2e45:	48 89 e7             	mov    %rsp,%rdi
    2e48:	be 20 00 00 00       	mov    $0x20,%esi
    2e4d:	ba 00 80 84 1e       	mov    $0x1e848000,%edx
    2e52:	e8 39 f2 ff ff       	call   2090 <posix_memalign@plt>
    2e57:	85 c0                	test   %eax,%eax
    2e59:	75 04                	jne    2e5f <main+0x8f>
    2e5b:	4c 8b 34 24          	mov    (%rsp),%r14
    2e5f:	4c 89 35 8a 32 00 00 	mov    %r14,0x328a(%rip)        # 60f0 <rho_grid>
    2e66:	4d 85 f6             	test   %r14,%r14
    2e69:	0f 84 29 03 00 00    	je     3198 <main+0x3c8>
    2e6f:	48 83 3d 69 32 00 00 	cmpq   $0x0,0x3269(%rip)        # 60e0 <Phi_grid>
    2e76:	00 
    2e77:	0f 84 1b 03 00 00    	je     3198 <main+0x3c8>
    2e7d:	48 83 3d 63 32 00 00 	cmpq   $0x0,0x3263(%rip)        # 60e8 <Phi_grid_new>
    2e84:	00 
    2e85:	0f 84 0d 03 00 00    	je     3198 <main+0x3c8>
    2e8b:	bf 06 00 00 00       	mov    $0x6,%edi
    2e90:	e8 3b f2 ff ff       	call   20d0 <omp_set_num_threads@plt>
    2e95:	31 c0                	xor    %eax,%eax
    2e97:	c4 e2 7d 19 25 68 11 	vbroadcastsd 0x1168(%rip),%ymm4        # 4008 <_IO_stdin_used+0x8>
    2e9e:	00 00 
    2ea0:	c4 e2 7d 19 2d 67 11 	vbroadcastsd 0x1167(%rip),%ymm5        # 4010 <_IO_stdin_used+0x10>
    2ea7:	00 00 
    2ea9:	c4 e2 7d 19 35 6e 11 	vbroadcastsd 0x116e(%rip),%ymm6        # 4020 <_IO_stdin_used+0x20>
    2eb0:	00 00 
    2eb2:	c4 e2 7d 19 3d 5d 11 	vbroadcastsd 0x115d(%rip),%ymm7        # 4018 <_IO_stdin_used+0x18>
    2eb9:	00 00 
    2ebb:	c4 41 3d 76 c0       	vpcmpeqd %ymm8,%ymm8,%ymm8
    2ec0:	c4 41 31 57 c9       	vxorpd %xmm9,%xmm9,%xmm9
    2ec5:	c4 62 7d 19 15 5a 11 	vbroadcastsd 0x115a(%rip),%ymm10        # 4028 <_IO_stdin_used+0x28>
    2ecc:	00 00 
    2ece:	c4 62 7d 19 1d 59 11 	vbroadcastsd 0x1159(%rip),%ymm11        # 4030 <_IO_stdin_used+0x30>
    2ed5:	00 00 
    2ed7:	c4 62 79 58 25 24 11 	vpbroadcastd 0x1124(%rip),%xmm12        # 4004 <_IO_stdin_used+0x4>
    2ede:	00 00 
    2ee0:	31 c9                	xor    %ecx,%ecx
    2ee2:	66 66 66 66 66 2e 0f 	data16 data16 data16 data16 cs nopw 0x0(%rax,%rax,1)
    2ee9:	1f 84 00 00 00 00 00 
    2ef0:	c4 41 10 57 ed       	vxorps %xmm13,%xmm13,%xmm13
    2ef5:	c5 13 2a e9          	vcvtsi2sd %ecx,%xmm13,%xmm13
    2ef9:	c5 13 59 2d 07 11 00 	vmulsd 0x1107(%rip),%xmm13,%xmm13        # 4008 <_IO_stdin_used+0x8>
    2f00:	00 
    2f01:	c5 13 58 35 07 11 00 	vaddsd 0x1107(%rip),%xmm13,%xmm14        # 4010 <_IO_stdin_used+0x10>
    2f08:	00 
    2f09:	c4 41 0b 59 f6       	vmulsd %xmm14,%xmm14,%xmm14
    2f0e:	c5 13 58 2d 02 11 00 	vaddsd 0x1102(%rip),%xmm13,%xmm13        # 4018 <_IO_stdin_used+0x18>
    2f15:	00 
    2f16:	c4 41 13 59 ed       	vmulsd %xmm13,%xmm13,%xmm13
    2f1b:	c4 42 7d 19 ed       	vbroadcastsd %xmm13,%ymm13
    2f20:	c4 42 7d 19 f6       	vbroadcastsd %xmm14,%ymm14
    2f25:	48 8b 15 c4 31 00 00 	mov    0x31c4(%rip),%rdx        # 60f0 <rho_grid>
    2f2c:	48 01 c2             	add    %rax,%rdx
    2f2f:	31 f6                	xor    %esi,%esi
    2f31:	c5 79 6f 3d 47 11 00 	vmovdqa 0x1147(%rip),%xmm15        # 4080 <_IO_stdin_used+0x80>
    2f38:	00 
    2f39:	0f 1f 80 00 00 00 00 	nopl   0x0(%rax)
    2f40:	c4 c1 7e e6 c7       	vcvtdq2pd %xmm15,%ymm0
    2f45:	c5 fd 59 c4          	vmulpd %ymm4,%ymm0,%ymm0
    2f49:	c5 fd 58 cd          	vaddpd %ymm5,%ymm0,%ymm1
    2f4d:	c4 c2 f5 a8 cd       	vfmadd213pd %ymm13,%ymm1,%ymm1
    2f52:	c5 cd c2 d1 02       	vcmplepd %ymm1,%ymm6,%ymm2
    2f57:	c5 f5 c2 ce 01       	vcmpltpd %ymm6,%ymm1,%ymm1
    2f5c:	c5 fd 58 c7          	vaddpd %ymm7,%ymm0,%ymm0
    2f60:	c4 c2 fd a8 c6       	vfmadd213pd %ymm14,%ymm0,%ymm0
    2f65:	c5 fd c2 c6 01       	vcmpltpd %ymm6,%ymm0,%ymm0
    2f6a:	c5 f5 56 d8          	vorpd  %ymm0,%ymm1,%ymm3
    2f6e:	c5 bd 57 db          	vxorpd %ymm3,%ymm8,%ymm3
    2f72:	c4 62 65 2f 0c f2    	vmaskmovpd %ymm9,%ymm3,(%rdx,%rsi,8)
    2f78:	c5 ed 54 c0          	vandpd %ymm0,%ymm2,%ymm0
    2f7c:	c4 62 7d 2f 14 f2    	vmaskmovpd %ymm10,%ymm0,(%rdx,%rsi,8)
    2f82:	c4 62 75 2f 1c f2    	vmaskmovpd %ymm11,%ymm1,(%rdx,%rsi,8)
    2f88:	48 83 c6 04          	add    $0x4,%rsi
    2f8c:	c4 41 01 fe fc       	vpaddd %xmm12,%xmm15,%xmm15
    2f91:	48 81 fe 40 1f 00 00 	cmp    $0x1f40,%rsi
    2f98:	75 a6                	jne    2f40 <main+0x170>
    2f9a:	48 ff c1             	inc    %rcx
    2f9d:	48 05 00 fa 00 00    	add    $0xfa00,%rax
    2fa3:	48 81 f9 40 1f 00 00 	cmp    $0x1f40,%rcx
    2faa:	0f 85 40 ff ff ff    	jne    2ef0 <main+0x120>
    2fb0:	41 be 64 00 00 00    	mov    $0x64,%r14d
    2fb6:	c5 f8 77             	vzeroupper
    2fb9:	e8 92 f0 ff ff       	call   2050 <_ZNSt6chrono3_V212system_clock3nowEv@plt>
    2fbe:	48 89 44 24 30       	mov    %rax,0x30(%rsp)
    2fc3:	c4 e2 7d 19 05 6c 10 	vbroadcastsd 0x106c(%rip),%ymm0        # 4038 <_IO_stdin_used+0x38>
    2fca:	00 00 
    2fcc:	c5 fc 29 44 24 40    	vmovaps %ymm0,0x40(%rsp)
    2fd2:	c4 e2 7d 19 05 65 10 	vbroadcastsd 0x1065(%rip),%ymm0        # 4040 <_IO_stdin_used+0x40>
    2fd9:	00 00 
    2fdb:	c5 fc 29 84 24 c0 00 	vmovaps %ymm0,0xc0(%rsp)
    2fe2:	00 00 
    2fe4:	c4 e2 7d 19 05 5b 10 	vbroadcastsd 0x105b(%rip),%ymm0        # 4048 <_IO_stdin_used+0x48>
    2feb:	00 00 
    2fed:	c5 fc 29 84 24 a0 00 	vmovaps %ymm0,0xa0(%rsp)
    2ff4:	00 00 
    2ff6:	c4 e2 7d 19 05 51 10 	vbroadcastsd 0x1051(%rip),%ymm0        # 4050 <_IO_stdin_used+0x50>
    2ffd:	00 00 
    2fff:	c5 fc 29 84 24 80 00 	vmovaps %ymm0,0x80(%rsp)
    3006:	00 00 
    3008:	c4 e2 7d 19 05 47 10 	vbroadcastsd 0x1047(%rip),%ymm0        # 4058 <_IO_stdin_used+0x58>
    300f:	00 00 
    3011:	c5 fd 29 44 24 60    	vmovapd %ymm0,0x60(%rsp)
    3017:	49 89 e7             	mov    %rsp,%r15
    301a:	4c 8d a4 24 60 01 00 	lea    0x160(%rsp),%r12
    3021:	00 
    3022:	4c 8d 2d 27 2d 00 00 	lea    0x2d27(%rip),%r13        # 5d50 <__do_global_dtors_aux_fini_array_entry+0x80>
    3029:	0f 1f 80 00 00 00 00 	nopl   0x0(%rax)
    3030:	48 c7 44 24 38 00 00 	movq   $0x0,0x38(%rsp)
    3037:	00 00 
    3039:	c5 fc 28 44 24 40    	vmovaps 0x40(%rsp),%ymm0
    303f:	c5 fc 29 04 24       	vmovaps %ymm0,(%rsp)
    3044:	c5 fc 29 84 24 60 01 	vmovaps %ymm0,0x160(%rsp)
    304b:	00 00 
    304d:	c5 fc 28 84 24 c0 00 	vmovaps 0xc0(%rsp),%ymm0
    3054:	00 00 
    3056:	c5 fc 29 84 24 40 01 	vmovaps %ymm0,0x140(%rsp)
    305d:	00 00 
    305f:	c5 fc 28 84 24 a0 00 	vmovaps 0xa0(%rsp),%ymm0
    3066:	00 00 
    3068:	c5 fc 29 84 24 20 01 	vmovaps %ymm0,0x120(%rsp)
    306f:	00 00 
    3071:	c5 fc 28 84 24 80 00 	vmovaps 0x80(%rsp),%ymm0
    3078:	00 00 
    307a:	c5 fc 29 84 24 00 01 	vmovaps %ymm0,0x100(%rsp)
    3081:	00 00 
    3083:	c5 fd 28 44 24 60    	vmovapd 0x60(%rsp),%ymm0
    3089:	c5 fd 29 84 24 e0 00 	vmovapd %ymm0,0xe0(%rsp)
    3090:	00 00 
    3092:	48 8d 3d 87 2c 00 00 	lea    0x2c87(%rip),%rdi        # 5d20 <__do_global_dtors_aux_fini_array_entry+0x50>
    3099:	89 de                	mov    %ebx,%esi
    309b:	ba 04 00 00 00       	mov    $0x4,%edx
    30a0:	c5 f8 77             	vzeroupper
    30a3:	e8 d8 f0 ff ff       	call   2180 <__kmpc_push_proc_bind@plt>
    30a8:	48 8d 3d 89 2c 00 00 	lea    0x2c89(%rip),%rdi        # 5d38 <__do_global_dtors_aux_fini_array_entry+0x68>
    30af:	be 07 00 00 00       	mov    $0x7,%esi
    30b4:	48 8d 15 55 f5 ff ff 	lea    -0xaab(%rip),%rdx        # 2610 <_Z24process_timestep_alignedv.omp_outlined>
    30bb:	48 8d 4c 24 38       	lea    0x38(%rsp),%rcx
    30c0:	4d 89 f8             	mov    %r15,%r8
    30c3:	4d 89 e1             	mov    %r12,%r9
    30c6:	31 c0                	xor    %eax,%eax
    30c8:	4c 8d 94 24 e0 00 00 	lea    0xe0(%rsp),%r10
    30cf:	00 
    30d0:	41 52                	push   %r10
    30d2:	4c 8d 94 24 08 01 00 	lea    0x108(%rsp),%r10
    30d9:	00 
    30da:	41 52                	push   %r10
    30dc:	4c 8d 94 24 30 01 00 	lea    0x130(%rsp),%r10
    30e3:	00 
    30e4:	41 52                	push   %r10
    30e6:	4c 8d 94 24 58 01 00 	lea    0x158(%rsp),%r10
    30ed:	00 
    30ee:	41 52                	push   %r10
    30f0:	e8 ab f0 ff ff       	call   21a0 <__kmpc_fork_call@plt>
    30f5:	48 83 c4 20          	add    $0x20,%rsp
    30f9:	48 8b 05 e8 2f 00 00 	mov    0x2fe8(%rip),%rax        # 60e8 <Phi_grid_new>
    3100:	48 8b 0d d9 2f 00 00 	mov    0x2fd9(%rip),%rcx        # 60e0 <Phi_grid>
    3107:	48 89 0d da 2f 00 00 	mov    %rcx,0x2fda(%rip)        # 60e8 <Phi_grid_new>
    310e:	48 89 05 cb 2f 00 00 	mov    %rax,0x2fcb(%rip)        # 60e0 <Phi_grid>
    3115:	4c 89 ef             	mov    %r13,%rdi
    3118:	89 de                	mov    %ebx,%esi
    311a:	e8 21 f0 ff ff       	call   2140 <__kmpc_barrier@plt>
    311f:	41 ff ce             	dec    %r14d
    3122:	0f 85 08 ff ff ff    	jne    3030 <main+0x260>
    3128:	e8 23 ef ff ff       	call   2050 <_ZNSt6chrono3_V212system_clock3nowEv@plt>
    312d:	48 2b 44 24 30       	sub    0x30(%rsp),%rax
    3132:	c5 d8 57 e4          	vxorps %xmm4,%xmm4,%xmm4
    3136:	c4 e1 db 2a c0       	vcvtsi2sd %rax,%xmm4,%xmm0
    313b:	c5 fb 59 05 2d 0f 00 	vmulsd 0xf2d(%rip),%xmm0,%xmm0        # 4070 <_IO_stdin_used+0x70>
    3142:	00 
    3143:	c5 fb 11 44 24 40    	vmovsd %xmm0,0x40(%rsp)
    3149:	48 8b 1d 70 2e 00 00 	mov    0x2e70(%rip),%rbx        # 5fc0 <_ZSt4cout@GLIBCXX_3.4>
    3150:	48 8d 35 cf 10 00 00 	lea    0x10cf(%rip),%rsi        # 4226 <_IO_stdin_used+0x226>
    3157:	ba 06 00 00 00       	mov    $0x6,%edx
    315c:	48 89 df             	mov    %rbx,%rdi
    315f:	e8 7c ef ff ff       	call   20e0 <_ZSt16__ostream_insertIcSt11char_traitsIcEERSt13basic_ostreamIT_T0_ES6_PKS3_l@plt>
    3164:	48 89 df             	mov    %rbx,%rdi
    3167:	c5 fb 10 44 24 40    	vmovsd 0x40(%rsp),%xmm0
    316d:	e8 ee ef ff ff       	call   2160 <_ZNSo9_M_insertIdEERSoT_@plt>
    3172:	48 8b 08             	mov    (%rax),%rcx
    3175:	48 8b 49 e8          	mov    -0x18(%rcx),%rcx
    3179:	4c 8b b4 08 f0 00 00 	mov    0xf0(%rax,%rcx,1),%r14
    3180:	00 
    3181:	4d 85 f6             	test   %r14,%r14
    3184:	0f 84 8a 01 00 00    	je     3314 <main+0x544>
    318a:	41 80 7e 38 00       	cmpb   $0x0,0x38(%r14)
    318f:	74 49                	je     31da <main+0x40a>
    3191:	41 0f b6 4e 43       	movzbl 0x43(%r14),%ecx
    3196:	eb 60                	jmp    31f8 <main+0x428>
    3198:	48 8b 1d 41 2e 00 00 	mov    0x2e41(%rip),%rbx        # 5fe0 <_ZSt4cerr@GLIBCXX_3.4>
    319f:	48 8d 35 1c 10 00 00 	lea    0x101c(%rip),%rsi        # 41c2 <_IO_stdin_used+0x1c2>
    31a6:	ba 29 00 00 00       	mov    $0x29,%edx
    31ab:	48 89 df             	mov    %rbx,%rdi
    31ae:	e8 2d ef ff ff       	call   20e0 <_ZSt16__ostream_insertIcSt11char_traitsIcEERSt13basic_ostreamIT_T0_ES6_PKS3_l@plt>
    31b3:	48 8b 03             	mov    (%rbx),%rax
    31b6:	48 8b 40 e8          	mov    -0x18(%rax),%rax
    31ba:	48 8b 9c 03 f0 00 00 	mov    0xf0(%rbx,%rax,1),%rbx
    31c1:	00 
    31c2:	48 85 db             	test   %rbx,%rbx
    31c5:	0f 84 49 01 00 00    	je     3314 <main+0x544>
    31cb:	80 7b 38 00          	cmpb   $0x0,0x38(%rbx)
    31cf:	74 75                	je     3246 <main+0x476>
    31d1:	0f b6 43 43          	movzbl 0x43(%rbx),%eax
    31d5:	e9 82 00 00 00       	jmp    325c <main+0x48c>
    31da:	4c 89 f7             	mov    %r14,%rdi
    31dd:	49 89 c7             	mov    %rax,%r15
    31e0:	e8 0b ef ff ff       	call   20f0 <_ZNKSt5ctypeIcE13_M_widen_initEv@plt>
    31e5:	49 8b 06             	mov    (%r14),%rax
    31e8:	4c 89 f7             	mov    %r14,%rdi
    31eb:	be 0a 00 00 00       	mov    $0xa,%esi
    31f0:	ff 50 30             	call   *0x30(%rax)
    31f3:	89 c1                	mov    %eax,%ecx
    31f5:	4c 89 f8             	mov    %r15,%rax
    31f8:	0f be f1             	movsbl %cl,%esi
    31fb:	48 89 c7             	mov    %rax,%rdi
    31fe:	e8 2d ee ff ff       	call   2030 <_ZNSo3putEc@plt>
    3203:	48 89 c7             	mov    %rax,%rdi
    3206:	e8 a5 ee ff ff       	call   20b0 <_ZNSo5flushEv@plt>
    320b:	48 8d 35 1b 10 00 00 	lea    0x101b(%rip),%rsi        # 422d <_IO_stdin_used+0x22d>
    3212:	ba 36 00 00 00       	mov    $0x36,%edx
    3217:	48 89 df             	mov    %rbx,%rdi
    321a:	e8 c1 ee ff ff       	call   20e0 <_ZSt16__ostream_insertIcSt11char_traitsIcEERSt13basic_ostreamIT_T0_ES6_PKS3_l@plt>
    321f:	48 8b 03             	mov    (%rbx),%rax
    3222:	48 8b 40 e8          	mov    -0x18(%rax),%rax
    3226:	48 8b 9c 03 f0 00 00 	mov    0xf0(%rbx,%rax,1),%rbx
    322d:	00 
    322e:	48 85 db             	test   %rbx,%rbx
    3231:	0f 84 dd 00 00 00    	je     3314 <main+0x544>
    3237:	80 7b 38 00          	cmpb   $0x0,0x38(%rbx)
    323b:	74 75                	je     32b2 <main+0x4e2>
    323d:	0f b6 43 43          	movzbl 0x43(%rbx),%eax
    3241:	e9 82 00 00 00       	jmp    32c8 <main+0x4f8>
    3246:	48 89 df             	mov    %rbx,%rdi
    3249:	e8 a2 ee ff ff       	call   20f0 <_ZNKSt5ctypeIcE13_M_widen_initEv@plt>
    324e:	48 8b 03             	mov    (%rbx),%rax
    3251:	48 89 df             	mov    %rbx,%rdi
    3254:	be 0a 00 00 00       	mov    $0xa,%esi
    3259:	ff 50 30             	call   *0x30(%rax)
    325c:	0f be f0             	movsbl %al,%esi
    325f:	48 8b 3d 7a 2d 00 00 	mov    0x2d7a(%rip),%rdi        # 5fe0 <_ZSt4cerr@GLIBCXX_3.4>
    3266:	e8 c5 ed ff ff       	call   2030 <_ZNSo3putEc@plt>
    326b:	48 89 c7             	mov    %rax,%rdi
    326e:	e8 3d ee ff ff       	call   20b0 <_ZNSo5flushEv@plt>
    3273:	48 8b 3d 66 2e 00 00 	mov    0x2e66(%rip),%rdi        # 60e0 <Phi_grid>
    327a:	48 85 ff             	test   %rdi,%rdi
    327d:	74 05                	je     3284 <main+0x4b4>
    327f:	e8 7c ee ff ff       	call   2100 <free@plt>
    3284:	48 8b 3d 5d 2e 00 00 	mov    0x2e5d(%rip),%rdi        # 60e8 <Phi_grid_new>
    328b:	48 85 ff             	test   %rdi,%rdi
    328e:	74 05                	je     3295 <main+0x4c5>
    3290:	e8 6b ee ff ff       	call   2100 <free@plt>
    3295:	48 8b 3d 54 2e 00 00 	mov    0x2e54(%rip),%rdi        # 60f0 <rho_grid>
    329c:	b8 01 00 00 00       	mov    $0x1,%eax
    32a1:	48 85 ff             	test   %rdi,%rdi
    32a4:	74 5f                	je     3305 <main+0x535>
    32a6:	e8 55 ee ff ff       	call   2100 <free@plt>
    32ab:	b8 01 00 00 00       	mov    $0x1,%eax
    32b0:	eb 53                	jmp    3305 <main+0x535>
    32b2:	48 89 df             	mov    %rbx,%rdi
    32b5:	e8 36 ee ff ff       	call   20f0 <_ZNKSt5ctypeIcE13_M_widen_initEv@plt>
    32ba:	48 8b 03             	mov    (%rbx),%rax
    32bd:	48 89 df             	mov    %rbx,%rdi
    32c0:	be 0a 00 00 00       	mov    $0xa,%esi
    32c5:	ff 50 30             	call   *0x30(%rax)
    32c8:	0f be f0             	movsbl %al,%esi
    32cb:	48 8b 3d ee 2c 00 00 	mov    0x2cee(%rip),%rdi        # 5fc0 <_ZSt4cout@GLIBCXX_3.4>
    32d2:	e8 59 ed ff ff       	call   2030 <_ZNSo3putEc@plt>
    32d7:	48 89 c7             	mov    %rax,%rdi
    32da:	e8 d1 ed ff ff       	call   20b0 <_ZNSo5flushEv@plt>
    32df:	48 8b 3d fa 2d 00 00 	mov    0x2dfa(%rip),%rdi        # 60e0 <Phi_grid>
    32e6:	e8 15 ee ff ff       	call   2100 <free@plt>
    32eb:	48 8b 3d f6 2d 00 00 	mov    0x2df6(%rip),%rdi        # 60e8 <Phi_grid_new>
    32f2:	e8 09 ee ff ff       	call   2100 <free@plt>
    32f7:	48 8b 3d f2 2d 00 00 	mov    0x2df2(%rip),%rdi        # 60f0 <rho_grid>
    32fe:	e8 fd ed ff ff       	call   2100 <free@plt>
    3303:	31 c0                	xor    %eax,%eax
    3305:	48 8d 65 d8          	lea    -0x28(%rbp),%rsp
    3309:	5b                   	pop    %rbx
    330a:	41 5c                	pop    %r12
    330c:	41 5d                	pop    %r13
    330e:	41 5e                	pop    %r14
    3310:	41 5f                	pop    %r15
    3312:	5d                   	pop    %rbp
    3313:	c3                   	ret
    3314:	e8 f7 ed ff ff       	call   2110 <_ZSt16__throw_bad_castv@plt>

Disassembly of section .fini:

000000000000331c <_fini>:
    331c:	f3 0f 1e fa          	endbr64
    3320:	48 83 ec 08          	sub    $0x8,%rsp
    3324:	48 83 c4 08          	add    $0x8,%rsp
    3328:	c3                   	ret
