	.file	"main.cpp"
	.intel_syntax noprefix
	.text
.Ltext0:
	.file 0 "/home/helttek/nsu/epsmim/lab1/build" "/home/helttek/nsu/epsmim/lab1/main.cpp"
#APP
	.globl _ZSt21ios_base_library_initv
#NO_APP
	.p2align 4
	.globl	_Z8init_rhov
	.type	_Z8init_rhov, @function
_Z8init_rhov:
.LFB3137:
	.file 1 "/home/helttek/nsu/epsmim/lab1/main.cpp"
	.loc 1 70 17 view -0
	.cfi_startproc
	endbr64
	push	rbp
	.cfi_def_cfa_offset 16
	.cfi_offset 6, -16
	mov	rbp, rsp
	.cfi_def_cfa_register 6
1:	call	[QWORD PTR mcount@GOTPCREL[rip]]
	.loc 1 70 17 is_stmt 0 view .LVU1
	.loc 1 71 3 is_stmt 1 view .LVU2
	.loc 1 72 3 view .LVU3
	.loc 1 73 3 view .LVU4
.LVL0:
.LBB163:
	.loc 1 73 21 discriminator 1 view .LVU5
	mov	rsi, QWORD PTR rho_grid[rip]
	movsd	xmm4, QWORD PTR .LC11[rip]
	.loc 1 73 12 is_stmt 0 view .LVU6
	xor	ecx, ecx
	movsd	xmm12, QWORD PTR .LC1[rip]
	movsd	xmm11, QWORD PTR .LC7[rip]
	movsd	xmm10, QWORD PTR .LC9[rip]
	lea	rdx, 512000000[rsi]
	movsd	xmm9, QWORD PTR .LC13[rip]
	unpcklpd	xmm4, xmm4
	movsd	xmm8, QWORD PTR .LC15[rip]
	unpcklpd	xmm12, xmm12
	unpcklpd	xmm11, xmm11
	movdqa	xmm14, XMMWORD PTR .LC0[rip]
	movdqa	xmm13, XMMWORD PTR .LC4[rip]
	unpcklpd	xmm10, xmm10
	unpcklpd	xmm9, xmm9
	unpcklpd	xmm8, xmm8
.LVL1:
	.p2align 4,,10
	.p2align 3
.L3:
.LBB164:
	.loc 1 74 23 is_stmt 1 discriminator 1 view .LVU7
	.loc 1 76 19 is_stmt 0 view .LVU8
	pxor	xmm6, xmm6
.LBB165:
.LBB166:
	.loc 1 63 44 view .LVU9
	mov	rax, rsi
	movdqa	xmm5, xmm14
.LBE166:
.LBE165:
	.loc 1 76 19 view .LVU10
	cvtsi2sd	xmm6, ecx
	.loc 1 76 10 view .LVU11
	mulsd	xmm6, QWORD PTR .LC1[rip]
.LBB170:
.LBB167:
	.loc 1 59 37 view .LVU12
	movapd	xmm7, xmm6
	.loc 1 63 37 view .LVU13
	subsd	xmm6, QWORD PTR .LC3[rip]
	.loc 1 59 37 view .LVU14
	subsd	xmm7, QWORD PTR .LC2[rip]
	.loc 1 63 44 view .LVU15
	mulsd	xmm6, xmm6
	.loc 1 59 44 view .LVU16
	mulsd	xmm7, xmm7
	unpcklpd	xmm6, xmm6
	unpcklpd	xmm7, xmm7
.LVL2:
	.p2align 4,,10
	.p2align 3
.L2:
	.loc 1 59 44 view .LVU17
	movdqa	xmm0, xmm5
	.loc 1 59 3 view .LVU18
	movapd	xmm15, xmm4
	add	rax, 256000
.LBE167:
.LBE170:
	.loc 1 75 19 view .LVU19
	cvtdq2pd	xmm3, xmm0
	pshufd	xmm0, xmm0, 238
	paddd	xmm5, xmm13
	.loc 1 75 7 is_stmt 1 view .LVU20
	.loc 1 75 19 is_stmt 0 view .LVU21
	cvtdq2pd	xmm0, xmm0
	.loc 1 75 10 view .LVU22
	mulpd	xmm0, xmm12
	.loc 1 76 7 is_stmt 1 view .LVU23
	.loc 1 77 7 view .LVU24
.LBB171:
.LBI165:
	.loc 1 54 6 view .LVU25
.LBB168:
	.loc 1 59 3 view .LVU26
.LBE168:
.LBE171:
	.loc 1 75 10 is_stmt 0 view .LVU27
	mulpd	xmm3, xmm12
.LBB172:
.LBB169:
	.loc 1 59 11 view .LVU28
	movapd	xmm1, xmm0
	.loc 1 63 11 view .LVU29
	addpd	xmm0, xmm10
	.loc 1 59 11 view .LVU30
	addpd	xmm1, xmm11
	movapd	xmm2, xmm3
	.loc 1 63 11 view .LVU31
	addpd	xmm3, xmm10
	.loc 1 59 11 view .LVU32
	addpd	xmm2, xmm11
	.loc 1 63 18 view .LVU33
	mulpd	xmm0, xmm0
	.loc 1 59 18 view .LVU34
	mulpd	xmm1, xmm1
	mulpd	xmm2, xmm2
	.loc 1 63 18 view .LVU35
	mulpd	xmm3, xmm3
	.loc 1 63 31 view .LVU36
	addpd	xmm0, xmm6
	.loc 1 59 31 view .LVU37
	addpd	xmm1, xmm7
	.loc 1 63 3 is_stmt 1 view .LVU38
	.loc 1 59 31 is_stmt 0 view .LVU39
	addpd	xmm2, xmm7
	.loc 1 63 3 view .LVU40
	cmpltpd	xmm0, xmm4
	.loc 1 63 31 view .LVU41
	addpd	xmm3, xmm6
	.loc 1 59 3 view .LVU42
	cmplepd	xmm15, xmm1
	cmpltpd	xmm1, xmm4
	.loc 1 63 3 view .LVU43
	cmpltpd	xmm3, xmm4
	pand	xmm0, xmm15
	.loc 1 67 3 is_stmt 1 view .LVU44
	.loc 1 59 3 is_stmt 0 view .LVU45
	movapd	xmm15, xmm4
	cmplepd	xmm15, xmm2
	cmpltpd	xmm2, xmm4
	andpd	xmm0, xmm9
	pand	xmm3, xmm15
	movapd	xmm15, xmm8
	andpd	xmm3, xmm9
	andpd	xmm15, xmm2
	andnpd	xmm2, xmm3
	movapd	xmm3, xmm8
	andpd	xmm3, xmm1
	andnpd	xmm1, xmm0
	orpd	xmm2, xmm15
	orpd	xmm1, xmm3
	.loc 1 60 25 view .LVU46
	movlpd	QWORD PTR -256000[rax], xmm2
	movhpd	QWORD PTR -192000[rax], xmm2
	movlpd	QWORD PTR -128000[rax], xmm1
	movhpd	QWORD PTR -64000[rax], xmm1
.LBE169:
.LBE172:
	.loc 1 74 5 is_stmt 1 discriminator 3 view .LVU47
	.loc 1 74 23 discriminator 1 view .LVU48
	cmp	rdx, rax
	jne	.L2
.LBE164:
	.loc 1 73 3 discriminator 2 view .LVU49
	add	ecx, 1
.LVL3:
	.loc 1 73 21 discriminator 1 view .LVU50
	add	rsi, 8
	add	rdx, 8
	cmp	ecx, 8000
	jne	.L3
.LBE163:
	.loc 1 80 1 is_stmt 0 view .LVU51
	pop	rbp
	.cfi_def_cfa 7, 8
	ret
	.cfi_endproc
.LFE3137:
	.size	_Z8init_rhov, .-_Z8init_rhov
	.section	.rodata.str1.1,"aMS",@progbits,1
.LC16:
	.string	"sched_setaffinity"
	.section	.text.unlikely,"ax",@progbits
.LCOLDB17:
	.text
.LHOTB17:
	.p2align 4
	.section	.text.unlikely
.Ltext_cold0:
	.text
	.globl	_Z7set_cpuv
	.type	_Z7set_cpuv, @function
_Z7set_cpuv:
.LFB3139:
	.loc 1 94 16 is_stmt 1 view -0
	.cfi_startproc
	endbr64
	push	rbp
	.cfi_def_cfa_offset 16
	.cfi_offset 6, -16
	mov	rbp, rsp
	.cfi_def_cfa_register 6
	push	rbx
	sub	rsp, 152
	.cfi_offset 3, -24
1:	call	[QWORD PTR mcount@GOTPCREL[rip]]
	.loc 1 94 16 is_stmt 0 view .LVU53
	.loc 1 96 3 view .LVU54
	mov	ecx, 15
	.loc 1 94 16 view .LVU55
	mov	rax, QWORD PTR fs:40
	mov	QWORD PTR -24[rbp], rax
	xor	eax, eax
	.loc 1 95 3 is_stmt 1 view .LVU56
	.loc 1 96 3 view .LVU57
	.loc 1 96 3 view .LVU58
	lea	rdx, -152[rbp]
	lea	rbx, -160[rbp]
.LBB177:
	.loc 1 97 3 is_stmt 0 discriminator 1 view .LVU59
	mov	QWORD PTR -160[rbp], 4
.LBE177:
	.loc 1 96 3 view .LVU60
	mov	rdi, rdx
	rep stosq
	.loc 1 96 3 is_stmt 1 discriminator 1 view .LVU61
	.loc 1 97 3 view .LVU62
.LBB178:
	.loc 1 97 3 view .LVU63
.LVL4:
	.loc 1 97 3 view .LVU64
.LBE178:
	.loc 1 98 3 view .LVU65
	.loc 1 98 21 is_stmt 0 view .LVU66
	call	getpid@PLT
.LVL5:
	.loc 1 99 24 view .LVU67
	mov	rdx, rbx
	mov	esi, 128
	.loc 1 98 21 view .LVU68
	mov	edi, eax
.LVL6:
	.loc 1 99 3 is_stmt 1 view .LVU69
	.loc 1 99 24 is_stmt 0 view .LVU70
	call	sched_setaffinity@PLT
.LVL7:
	.loc 1 99 3 discriminator 1 view .LVU71
	cmp	eax, -1
	je	.L10
.L7:
	.loc 1 102 1 view .LVU72
	mov	rax, QWORD PTR -24[rbp]
	sub	rax, QWORD PTR fs:40
	jne	.L11
	mov	rbx, QWORD PTR -8[rbp]
	leave
	.cfi_remember_state
	.cfi_def_cfa 7, 8
	ret
.L11:
	.cfi_restore_state
	call	__stack_chk_fail@PLT
.LVL8:
	.cfi_endproc
	.section	.text.unlikely
	.cfi_startproc
	.type	_Z7set_cpuv.cold, @function
_Z7set_cpuv.cold:
.LFSB3139:
.L10:
	.cfi_def_cfa 6, 16
	.cfi_offset 3, -24
	.cfi_offset 6, -16
.LBB179:
	.loc 1 94 6 is_stmt 1 view -0
.LBB180:
	.loc 1 100 5 view .LVU74
	.loc 1 100 11 is_stmt 0 view .LVU75
	lea	rdi, .LC16[rip]
	call	perror@PLT
.LVL9:
	jmp	.L7
.LBE180:
.LBE179:
	.cfi_endproc
.LFE3139:
	.text
	.size	_Z7set_cpuv, .-_Z7set_cpuv
	.section	.text.unlikely
	.size	_Z7set_cpuv.cold, .-_Z7set_cpuv.cold
.LCOLDE17:
	.text
.LHOTE17:
	.section	.rodata.str1.1
.LC18:
	.string	"double.dat"
	.section	.text.unlikely
.LCOLDB20:
	.text
.LHOTB20:
	.p2align 4
	.globl	_Z4dumpv
	.type	_Z4dumpv, @function
_Z4dumpv:
.LFB3138:
	.loc 1 82 13 is_stmt 1 view -0
	.cfi_startproc
	.cfi_personality 0x9b,DW.ref.__gxx_personality_v0
	.cfi_lsda 0x1b,.LLSDA3138
	endbr64
	push	rbp
	.cfi_def_cfa_offset 16
	.cfi_offset 6, -16
	mov	rbp, rsp
	.cfi_def_cfa_register 6
	push	r15
	push	r14
	push	r13
	push	r12
	push	rbx
	sub	rsp, 552
	.cfi_offset 15, -24
	.cfi_offset 14, -32
	.cfi_offset 13, -40
	.cfi_offset 12, -48
	.cfi_offset 3, -56
1:	call	[QWORD PTR mcount@GOTPCREL[rip]]
	.loc 1 82 13 is_stmt 0 view .LVU77
.LBB232:
.LBB233:
.LBB234:
.LBB235:
.LBB236:
.LBB237:
	.file 2 "/usr/include/c++/13/bits/basic_ios.h"
	.loc 2 462 59 discriminator 1 view .LVU78
	lea	r15, _ZTVSt9basic_iosIcSt11char_traitsIcEE[rip+16]
.LBE237:
.LBE236:
.LBE235:
.LBE234:
.LBE233:
.LBE232:
	.loc 1 82 13 view .LVU79
	mov	rax, QWORD PTR fs:40
	mov	QWORD PTR -56[rbp], rax
	xor	eax, eax
	.loc 1 83 3 is_stmt 1 view .LVU80
.LVL10:
.LBB305:
.LBI232:
	.file 3 "/usr/include/c++/13/fstream"
	.loc 3 797 7 view .LVU81
.LBB300:
.LBB295:
.LBB250:
.LBI235:
	.loc 2 460 7 view .LVU82
.LBB244:
.LBB238:
	.loc 2 462 59 is_stmt 0 view .LVU83
	lea	r13, -328[rbp]
.LVL11:
	.loc 2 462 59 view .LVU84
	lea	r14, -576[rbp]
.LVL12:
	.loc 2 462 59 view .LVU85
	mov	rdi, r13
	call	_ZNSt8ios_baseC2Ev@PLT
.LVL13:
.LBE238:
.LBE244:
.LBE250:
.LBB251:
.LBB252:
.LBB253:
	.file 4 "/usr/include/c++/13/ostream"
	.loc 4 432 7 view .LVU86
	mov	r12, QWORD PTR _ZTTSt14basic_ofstreamIcSt11char_traitsIcEE[rip+8]
.LBE253:
.LBE252:
.LBE251:
.LBB264:
.LBB245:
.LBB239:
	.loc 2 461 32 view .LVU87
	xor	eax, eax
.LBE239:
.LBE245:
.LBE264:
.LBB265:
.LBB259:
.LBB254:
	.loc 4 432 19 view .LVU88
	xor	esi, esi
.LBE254:
.LBE259:
.LBE265:
.LBB266:
.LBB246:
.LBB240:
	.loc 2 462 2 view .LVU89
	pxor	xmm0, xmm0
	.loc 2 461 32 view .LVU90
	mov	WORD PTR -104[rbp], ax
.LBE240:
.LBE246:
.LBE266:
.LBB267:
.LBB260:
.LBB255:
	.loc 4 432 7 view .LVU91
	mov	rax, QWORD PTR _ZTTSt14basic_ofstreamIcSt11char_traitsIcEE[rip+16]
.LBE255:
.LBE260:
.LBE267:
.LBB268:
.LBB247:
.LBB241:
	.loc 2 462 2 view .LVU92
	movaps	XMMWORD PTR -96[rbp], xmm0
	movaps	XMMWORD PTR -80[rbp], xmm0
.LVL14:
	.loc 2 462 2 view .LVU93
.LBE241:
.LBE247:
.LBE268:
.LBB269:
.LBI251:
	.loc 4 431 7 is_stmt 1 view .LVU94
.LBB261:
.LBB256:
	.loc 4 432 7 is_stmt 0 view .LVU95
	mov	rdi, QWORD PTR -24[r12]
.LBE256:
.LBE261:
.LBE269:
.LBB270:
.LBB248:
.LBB242:
	.loc 2 462 59 discriminator 1 view .LVU96
	mov	QWORD PTR -328[rbp], r15
.LBE242:
.LBE248:
.LBE270:
.LBB271:
.LBB262:
.LBB257:
	.loc 4 432 7 view .LVU97
	add	rdi, r14
.LBE257:
.LBE262:
.LBE271:
.LBB272:
.LBB249:
.LBB243:
	.loc 2 461 21 view .LVU98
	mov	QWORD PTR -112[rbp], 0
.LBE243:
.LBE249:
.LBE272:
.LBB273:
.LBB263:
.LBB258:
	.loc 4 432 7 view .LVU99
	mov	QWORD PTR -576[rbp], r12
	mov	QWORD PTR [rdi], rax
.LEHB0:
	.loc 4 432 19 view .LVU100
	call	_ZNSt9basic_iosIcSt11char_traitsIcEE4initEPSt15basic_streambufIcS1_E@PLT
.LVL15:
.LEHE0:
	.loc 4 432 19 view .LVU101
.LBE258:
.LBE263:
.LBE273:
	.loc 3 799 38 discriminator 1 view .LVU102
	lea	rax, _ZTVSt14basic_ofstreamIcSt11char_traitsIcEE[rip+24]
	.loc 3 799 27 discriminator 1 view .LVU103
	lea	rbx, -568[rbp]
	.loc 3 799 38 discriminator 1 view .LVU104
	mov	QWORD PTR -576[rbp], rax
	.loc 3 799 27 discriminator 1 view .LVU105
	mov	rdi, rbx
	.loc 3 799 38 discriminator 1 view .LVU106
	add	rax, 40
	mov	QWORD PTR -328[rbp], rax
.LEHB1:
	.loc 3 799 27 discriminator 1 view .LVU107
	call	_ZNSt13basic_filebufIcSt11char_traitsIcEEC1Ev@PLT
.LVL16:
.LEHE1:
	.loc 3 801 12 view .LVU108
	mov	rsi, rbx
	mov	rdi, r13
.LEHB2:
	call	_ZNSt9basic_iosIcSt11char_traitsIcEE4initEPSt15basic_streambufIcS1_E@PLT
.LVL17:
.LBB274:
.LBI274:
	.loc 3 928 7 is_stmt 1 view .LVU109
.LBB275:
	.loc 3 930 22 is_stmt 0 discriminator 1 view .LVU110
	mov	edx, 20
	lea	rsi, .LC18[rip]
	mov	rdi, rbx
	call	_ZNSt13basic_filebufIcSt11char_traitsIcEE4openEPKcSt13_Ios_Openmode@PLT
.LVL18:
.LBB276:
.LBB277:
	.loc 3 931 18 view .LVU111
	mov	rdx, QWORD PTR -576[rbp]
	mov	rdi, QWORD PTR -24[rdx]
	add	rdi, r14
.LBE277:
.LBE276:
	.loc 3 930 2 discriminator 2 view .LVU112
	test	rax, rax
	je	.L33
	.loc 3 935 15 view .LVU113
	xor	esi, esi
	call	_ZNSt9basic_iosIcSt11char_traitsIcEE5clearESt12_Ios_Iostate@PLT
.LVL19:
.LEHE2:
.L14:
	.loc 3 935 15 view .LVU114
.LBE275:
.LBE274:
.LBE295:
.LBE300:
.LBE305:
	.loc 1 85 3 is_stmt 1 view .LVU115
	.loc 1 85 12 is_stmt 0 view .LVU116
	mov	rsi, QWORD PTR Phi_grid_new[rip]
	mov	edx, 512000000
	mov	rdi, r14
.LEHB3:
	call	_ZNSo5writeEPKcl@PLT
.LVL20:
	.loc 1 91 3 is_stmt 1 view .LVU117
.LBB306:
.LBI306:
	.loc 3 1000 7 view .LVU118
.LBB307:
	.loc 3 1002 23 is_stmt 0 view .LVU119
	mov	rdi, rbx
	call	_ZNSt13basic_filebufIcSt11char_traitsIcEE5closeEv@PLT
.LVL21:
.LEHE3:
	movq	xmm1, QWORD PTR .LC19[rip]
	lea	rdx, _ZTVSt13basic_filebufIcSt11char_traitsIcEE[rip+16]
	movq	xmm2, rdx
	punpcklqdq	xmm1, xmm2
	movaps	XMMWORD PTR -592[rbp], xmm1
	.loc 3 1002 2 discriminator 1 view .LVU120
	test	rax, rax
	je	.L34
.L20:
.LVL22:
	.loc 3 1002 2 discriminator 1 view .LVU121
.LBE307:
.LBE306:
.LBB316:
.LBI316:
	.loc 3 869 7 is_stmt 1 view .LVU122
.LBB317:
	.loc 3 870 9 is_stmt 0 view .LVU123
	movdqa	xmm3, XMMWORD PTR -592[rbp]
	lea	rax, _ZTVSt14basic_ofstreamIcSt11char_traitsIcEE[rip+64]
.LBB318:
.LBB319:
	.loc 3 256 17 view .LVU124
	mov	rdi, rbx
.LBE319:
.LBE318:
	.loc 3 870 9 view .LVU125
	mov	QWORD PTR -328[rbp], rax
.LVL23:
.LBB326:
.LBI318:
	.loc 3 253 7 is_stmt 1 view .LVU126
.LBE326:
	.loc 3 870 9 is_stmt 0 view .LVU127
	movaps	XMMWORD PTR -576[rbp], xmm3
.LEHB4:
.LBB327:
.LBB322:
	.loc 3 256 17 view .LVU128
	call	_ZNSt13basic_filebufIcSt11char_traitsIcEE5closeEv@PLT
.LVL24:
.LEHE4:
.L22:
	.loc 3 259 7 view .LVU129
	lea	rdi, -464[rbp]
	call	_ZNSt12__basic_fileIcED1Ev@PLT
.LVL25:
.LBB320:
.LBI320:
	.file 5 "/usr/include/c++/13/streambuf"
	.loc 5 204 7 is_stmt 1 view .LVU130
.LBB321:
	.loc 5 205 9 is_stmt 0 view .LVU131
	lea	rax, _ZTVSt15basic_streambufIcSt11char_traitsIcEE[rip+16]
	lea	rdi, -512[rbp]
	mov	QWORD PTR -568[rbp], rax
	call	_ZNSt6localeD1Ev@PLT
.LVL26:
	.loc 5 205 9 view .LVU132
.LBE321:
.LBE320:
.LBE322:
.LBE327:
.LBB328:
.LBI328:
	.loc 4 95 7 is_stmt 1 view .LVU133
.LBB329:
	.loc 4 95 26 is_stmt 0 view .LVU134
	mov	rax, QWORD PTR -24[r12]
.LBE329:
.LBE328:
.LBB331:
.LBB332:
	.loc 2 282 22 view .LVU135
	mov	rdi, r13
.LBE332:
.LBE331:
.LBB334:
.LBB330:
	.loc 4 95 26 view .LVU136
	mov	rcx, QWORD PTR _ZTTSt14basic_ofstreamIcSt11char_traitsIcEE[rip+16]
	mov	QWORD PTR -576[rbp], r12
	mov	QWORD PTR -576[rbp+rax], rcx
.LVL27:
	.loc 4 95 26 view .LVU137
.LBE330:
.LBE334:
.LBB335:
.LBI331:
	.loc 2 282 7 is_stmt 1 view .LVU138
.LBB333:
	.loc 2 282 22 is_stmt 0 view .LVU139
	mov	QWORD PTR -328[rbp], r15
	call	_ZNSt8ios_baseD2Ev@PLT
.LVL28:
	.loc 2 282 22 view .LVU140
.LBE333:
.LBE335:
.LBE317:
.LBE316:
	.loc 1 92 1 view .LVU141
	mov	rax, QWORD PTR -56[rbp]
	sub	rax, QWORD PTR fs:40
	jne	.L35
	add	rsp, 552
	pop	rbx
	pop	r12
	pop	r13
	pop	r14
	pop	r15
	pop	rbp
	.cfi_remember_state
	.cfi_def_cfa 7, 8
	ret
.LVL29:
	.p2align 4,,10
	.p2align 3
.L33:
	.cfi_restore_state
.LBB342:
.LBB301:
.LBB296:
.LBB286:
.LBB285:
.LBB284:
.LBI276:
	.loc 3 928 7 is_stmt 1 view .LVU142
.LBB283:
.LBB278:
.LBI278:
	.loc 2 157 7 view .LVU143
.LBB279:
.LBB280:
.LBI280:
	.loc 2 137 7 view .LVU144
	.loc 2 137 7 is_stmt 0 view .LVU145
.LBE280:
.LBB281:
.LBI281:
	.file 6 "/usr/include/c++/13/bits/ios_base.h"
	.loc 6 170 3 is_stmt 1 view .LVU146
.LBB282:
	.loc 6 171 5 view .LVU147
	.loc 6 171 70 is_stmt 0 view .LVU148
	mov	esi, DWORD PTR 32[rdi]
	or	esi, 4
.LEHB5:
.LBE282:
.LBE281:
	.loc 2 158 20 discriminator 2 view .LVU149
	call	_ZNSt9basic_iosIcSt11char_traitsIcEE5clearESt12_Ios_Iostate@PLT
.LVL30:
.LEHE5:
	.loc 2 158 20 discriminator 2 view .LVU150
	jmp	.L14
.LVL31:
	.p2align 4,,10
	.p2align 3
.L34:
	.loc 2 158 20 discriminator 2 view .LVU151
.LBE279:
.LBE278:
.LBE283:
.LBE284:
.LBE285:
.LBE286:
.LBE296:
.LBE301:
.LBE342:
.LBB343:
.LBB315:
.LBB308:
.LBI308:
	.loc 3 928 7 is_stmt 1 view .LVU152
.LBB309:
	.loc 3 931 18 is_stmt 0 view .LVU153
	mov	rax, QWORD PTR -576[rbp]
	mov	rdi, QWORD PTR -24[rax]
	add	rdi, r14
.LVL32:
.LBB310:
.LBI310:
	.loc 2 157 7 is_stmt 1 view .LVU154
.LBB311:
.LBB312:
.LBI312:
	.loc 2 137 7 view .LVU155
	.loc 2 137 7 is_stmt 0 view .LVU156
.LBE312:
.LBB313:
.LBI313:
	.loc 6 170 3 is_stmt 1 view .LVU157
.LBB314:
	.loc 6 171 5 view .LVU158
	.loc 6 171 70 is_stmt 0 view .LVU159
	mov	esi, DWORD PTR 32[rdi]
	or	esi, 4
.LEHB6:
.LBE314:
.LBE313:
	.loc 2 158 20 discriminator 2 view .LVU160
	call	_ZNSt9basic_iosIcSt11char_traitsIcEE5clearESt12_Ios_Iostate@PLT
.LVL33:
.LEHE6:
	.loc 2 158 49 view .LVU161
	jmp	.L20
.LVL34:
.L35:
	.loc 2 158 49 view .LVU162
.LBE311:
.LBE310:
.LBE309:
.LBE308:
.LBE315:
.LBE343:
	.loc 1 92 1 view .LVU163
	call	__stack_chk_fail@PLT
.LVL35:
.L28:
	.loc 1 92 1 view .LVU164
	endbr64
.LBB344:
.LBB302:
.LBB297:
.LBB287:
.LBB288:
	.loc 4 95 26 view .LVU165
	mov	rbx, rax
	jmp	.L17
.LVL36:
.L27:
	.loc 4 95 26 view .LVU166
	endbr64
.LBE288:
.LBE287:
.LBB290:
.LBB291:
	.loc 2 282 22 view .LVU167
	mov	rbx, rax
	jmp	.L18
.LVL37:
.L26:
	.loc 2 282 22 view .LVU168
	endbr64
.LBE291:
.LBE290:
.LBE297:
.LBE302:
.LBE344:
	.loc 1 92 1 view .LVU169
	mov	rbx, rax
	jmp	.L23
.LVL38:
.L29:
	.loc 1 92 1 view .LVU170
	endbr64
.LBB345:
.LBB303:
.LBB298:
	.loc 3 803 7 view .LVU171
	mov	r14, rax
.LVL39:
	.loc 3 803 7 view .LVU172
	jmp	.L16
.LVL40:
.L30:
	.loc 3 803 7 view .LVU173
	endbr64
.LBE298:
.LBE303:
.LBE345:
.LBB346:
.LBB339:
.LBB336:
.LBB323:
	.loc 3 257 2 discriminator 1 view .LVU174
	mov	rdi, rax
	jmp	.L21
.LVL41:
	.loc 3 257 2 discriminator 1 view .LVU175
.LBE323:
.LBE336:
.LBE339:
.LBE346:
	.globl	__gxx_personality_v0
	.section	.gcc_except_table,"a",@progbits
	.align 4
.LLSDA3138:
	.byte	0xff
	.byte	0x9b
	.uleb128 .LLSDATT3138-.LLSDATTD3138
.LLSDATTD3138:
	.byte	0x1
	.uleb128 .LLSDACSE3138-.LLSDACSB3138
.LLSDACSB3138:
	.uleb128 .LEHB0-.LFB3138
	.uleb128 .LEHE0-.LEHB0
	.uleb128 .L27-.LFB3138
	.uleb128 0
	.uleb128 .LEHB1-.LFB3138
	.uleb128 .LEHE1-.LEHB1
	.uleb128 .L28-.LFB3138
	.uleb128 0
	.uleb128 .LEHB2-.LFB3138
	.uleb128 .LEHE2-.LEHB2
	.uleb128 .L29-.LFB3138
	.uleb128 0
	.uleb128 .LEHB3-.LFB3138
	.uleb128 .LEHE3-.LEHB3
	.uleb128 .L26-.LFB3138
	.uleb128 0
	.uleb128 .LEHB4-.LFB3138
	.uleb128 .LEHE4-.LEHB4
	.uleb128 .L30-.LFB3138
	.uleb128 0x1
	.uleb128 .LEHB5-.LFB3138
	.uleb128 .LEHE5-.LEHB5
	.uleb128 .L29-.LFB3138
	.uleb128 0
	.uleb128 .LEHB6-.LFB3138
	.uleb128 .LEHE6-.LEHB6
	.uleb128 .L26-.LFB3138
	.uleb128 0
.LLSDACSE3138:
	.byte	0x1
	.byte	0
	.align 4
	.long	0

.LLSDATT3138:
	.text
	.cfi_endproc
	.section	.text.unlikely
	.cfi_startproc
	.cfi_personality 0x9b,DW.ref.__gxx_personality_v0
	.cfi_lsda 0x1b,.LLSDAC3138
	.type	_Z4dumpv.cold, @function
_Z4dumpv.cold:
.LFSB3138:
.LBB347:
.LBB340:
.LBB337:
.LBB324:
.L16:
	.cfi_def_cfa 6, 16
	.cfi_offset 3, -56
	.cfi_offset 6, -16
	.cfi_offset 12, -48
	.cfi_offset 13, -40
	.cfi_offset 14, -32
	.cfi_offset 15, -24
.LBE324:
.LBE337:
.LBE340:
.LBE347:
.LBB348:
.LBB304:
.LBB299:
	.loc 3 803 7 view .LVU76
	mov	rdi, rbx
	mov	rbx, r14
	call	_ZNSt13basic_filebufIcSt11char_traitsIcEED1Ev@PLT
.LVL42:
.L17:
.LBB293:
.LBI287:
	.loc 4 95 7 is_stmt 1 view .LVU177
.LBB289:
	.loc 4 95 26 is_stmt 0 view .LVU178
	mov	rax, QWORD PTR -24[r12]
	mov	rcx, QWORD PTR _ZTTSt14basic_ofstreamIcSt11char_traitsIcEE[rip+16]
	mov	QWORD PTR -576[rbp], r12
	mov	QWORD PTR -576[rbp+rax], rcx
.LVL43:
.L18:
	.loc 4 95 26 view .LVU179
.LBE289:
.LBE293:
.LBB294:
.LBI290:
	.loc 2 282 7 is_stmt 1 view .LVU180
.LBB292:
	.loc 2 282 22 is_stmt 0 view .LVU181
	mov	rdi, r13
	mov	QWORD PTR -328[rbp], r15
	call	_ZNSt8ios_baseD2Ev@PLT
.LVL44:
	.loc 2 282 22 view .LVU182
	mov	rax, QWORD PTR -56[rbp]
	sub	rax, QWORD PTR fs:40
	jne	.L36
	mov	rdi, rbx
.LEHB7:
	call	_Unwind_Resume@PLT
.LVL45:
.L36:
	call	__stack_chk_fail@PLT
.LVL46:
.L23:
	.loc 2 282 22 view .LVU183
.LBE292:
.LBE294:
.LBE299:
.LBE304:
.LBE348:
	.loc 1 92 1 view .LVU184
	mov	rdi, r14
	call	_ZNSt14basic_ofstreamIcSt11char_traitsIcEED1Ev@PLT
.LVL47:
	mov	rax, QWORD PTR -56[rbp]
	sub	rax, QWORD PTR fs:40
	jne	.L37
	mov	rdi, rbx
	call	_Unwind_Resume@PLT
.LVL48:
.LEHE7:
.L21:
.LBB349:
.LBB341:
.LBB338:
.LBB325:
	.loc 3 257 2 discriminator 1 view .LVU185
	call	__cxa_begin_catch@PLT
.LVL49:
	.loc 3 257 2 discriminator 2 view .LVU186
	call	__cxa_end_catch@PLT
.LVL50:
	jmp	.L22
.LVL51:
.L37:
	.loc 3 257 2 discriminator 2 view .LVU187
	call	__stack_chk_fail@PLT
.LVL52:
.LBE325:
.LBE338:
.LBE341:
.LBE349:
	.cfi_endproc
.LFE3138:
	.section	.gcc_except_table
	.align 4
.LLSDAC3138:
	.byte	0xff
	.byte	0x9b
	.uleb128 .LLSDATTC3138-.LLSDATTDC3138
.LLSDATTDC3138:
	.byte	0x1
	.uleb128 .LLSDACSEC3138-.LLSDACSBC3138
.LLSDACSBC3138:
	.uleb128 .LEHB7-.LCOLDB20
	.uleb128 .LEHE7-.LEHB7
	.uleb128 0
	.uleb128 0
.LLSDACSEC3138:
	.byte	0x1
	.byte	0
	.align 4
	.long	0

.LLSDATTC3138:
	.section	.text.unlikely
	.text
	.size	_Z4dumpv, .-_Z4dumpv
	.section	.text.unlikely
	.size	_Z4dumpv.cold, .-_Z4dumpv.cold
.LCOLDE20:
	.text
.LHOTE20:
	.section	.rodata.str1.1
.LC32:
	.string	"time: "
	.section	.text.startup,"ax",@progbits
	.p2align 4
	.globl	main
	.type	main, @function
main:
.LFB3140:
	.loc 1 104 12 is_stmt 1 view -0
	.cfi_startproc
	endbr64
	push	rbp
	.cfi_def_cfa_offset 16
	.cfi_offset 6, -16
	mov	rbp, rsp
	.cfi_def_cfa_register 6
	push	r15
	push	r14
	push	r13
	push	r12
	push	rbx
	sub	rsp, 88
	.cfi_offset 15, -24
	.cfi_offset 14, -32
	.cfi_offset 13, -40
	.cfi_offset 12, -48
	.cfi_offset 3, -56
1:	call	[QWORD PTR mcount@GOTPCREL[rip]]
	.loc 1 104 12 is_stmt 0 view .LVU189
	.loc 1 105 3 is_stmt 1 view .LVU190
.LVL53:
	.loc 1 108 3 view .LVU191
	.loc 1 108 10 is_stmt 0 view .LVU192
	call	_Z7set_cpuv
.LVL54:
	.loc 1 111 3 is_stmt 1 view .LVU193
	.loc 1 112 3 view .LVU194
	.loc 1 113 3 view .LVU195
	.loc 1 115 3 view .LVU196
	.loc 1 116 3 view .LVU197
	.loc 1 117 3 view .LVU198
	.loc 1 118 3 view .LVU199
	.loc 1 119 3 view .LVU200
	.loc 1 120 3 view .LVU201
	.loc 1 121 3 view .LVU202
	.loc 1 122 3 view .LVU203
	.loc 1 124 3 view .LVU204
	.loc 1 124 11 is_stmt 0 view .LVU205
	call	_Z8init_rhov
.LVL55:
	.loc 1 126 3 is_stmt 1 view .LVU206
	.loc 1 126 61 is_stmt 0 view .LVU207
	call	_ZNSt6chrono3_V212system_clock3nowEv@PLT
.LVL56:
.LBB394:
.LBB395:
.LBB396:
	.loc 1 145 41 view .LVU208
	mov	rdx, QWORD PTR rho_grid[rip]
	movsd	xmm3, QWORD PTR .LC25[rip]
	mov	r9d, 100
	movsd	xmm2, QWORD PTR .LC27[rip]
.LBE396:
.LBE395:
.LBE394:
	.loc 1 126 61 view .LVU209
	mov	rbx, rax
.LVL57:
	.loc 1 127 3 is_stmt 1 view .LVU210
.LBB406:
	.loc 1 127 17 discriminator 1 view .LVU211
	mov	r8, QWORD PTR Phi_grid_new[rip]
	lea	rsi, 511872008[rdx]
	lea	r10, 8[rdx]
	unpcklpd	xmm3, xmm3
	mov	rax, QWORD PTR Phi_grid[rip]
	mov	QWORD PTR -80[rbp], rsi
	movapd	xmm7, XMMWORD PTR .LC22[rip]
	unpcklpd	xmm2, xmm2
	movapd	xmm8, XMMWORD PTR .LC21[rip]
	movsd	xmm6, QWORD PTR .LC23[rip]
.LVL58:
.L39:
.LBB400:
	.loc 1 128 23 discriminator 1 view .LVU212
	lea	rdi, 127984[rax]
	mov	QWORD PTR -88[rbp], rax
	lea	rcx, 8[rax]
	mov	rdx, r10
	movsd	xmm5, QWORD PTR .LC29[rip]
	movsd	xmm4, QWORD PTR .LC23[rip]
	mov	QWORD PTR -72[rbp], rdi
	lea	rsi, 64008[r8]
	mov	QWORD PTR -96[rbp], r8
	mov	DWORD PTR -100[rbp], r9d
	unpcklpd	xmm5, xmm5
	unpcklpd	xmm4, xmm4
.LVL59:
	.loc 1 128 23 is_stmt 0 discriminator 1 view .LVU213
	mov	QWORD PTR -112[rbp], rbx
	mov	QWORD PTR -120[rbp], r10
	mov	QWORD PTR -56[rbp], rsi
	lea	rsi, 64000[rax]
.LVL60:
	.p2align 4,,10
	.p2align 3
.L47:
.LBB397:
	.loc 1 129 25 is_stmt 1 discriminator 1 view .LVU214
	mov	rbx, QWORD PTR -56[rbp]
.LVL61:
	.loc 1 129 25 is_stmt 0 discriminator 1 view .LVU215
	lea	rdi, 8[rdx]
	mov	rax, rbx
	sub	rax, rdi
	cmp	rax, 128000
	jbe	.L51
	mov	rax, rbx
	sub	rax, rcx
	cmp	rax, 128016
	jbe	.L51
	mov	rax, QWORD PTR -72[rbp]
.LBE397:
.LBE400:
.LBE406:
	.loc 1 104 12 view .LVU216
	mov	QWORD PTR -64[rbp], rdx
	lea	r13, -8[rcx]
	lea	rdi, 64000[rdx]
	lea	r10, 128000[rdx]
	lea	r9, 63992[rdx]
	lea	r15, -63968[rax]
	lea	r14, 24[rax]
	lea	r12, -127968[rax]
	lea	rbx, 16[rax]
	lea	r11, 32[rax]
	lea	r8, 64008[rdx]
	xor	eax, eax
.LVL62:
	.p2align 4,,10
	.p2align 3
.L42:
.LBB407:
.LBB401:
.LBB398:
	.loc 1 131 9 is_stmt 1 view .LVU217
	.loc 1 135 9 view .LVU218
	.loc 1 139 9 view .LVU219
	.loc 1 145 9 view .LVU220
	.loc 1 148 9 view .LVU221
	.loc 1 153 9 view .LVU222
	.loc 1 150 46 is_stmt 0 view .LVU223
	mov	rdx, QWORD PTR -64[rbp]
	movupd	xmm0, XMMWORD PTR [r10+rax]
	movupd	xmm10, XMMWORD PTR [r9+rax]
	.loc 1 142 45 view .LVU224
	movupd	xmm11, XMMWORD PTR 0[r13+rax]
	.loc 1 150 46 view .LVU225
	movupd	xmm1, XMMWORD PTR [rdx+rax]
	.loc 1 142 45 view .LVU226
	movupd	xmm9, XMMWORD PTR [r11+rax]
	movupd	xmm12, XMMWORD PTR [rbx+rax]
	.loc 1 154 20 view .LVU227
	movupd	xmm13, XMMWORD PTR [rcx+rax]
	.loc 1 150 46 view .LVU228
	addpd	xmm0, xmm1
	movupd	xmm1, XMMWORD PTR [r8+rax]
	.loc 1 154 20 view .LVU229
	movupd	xmm14, XMMWORD PTR [rsi+rax]
	.loc 1 142 45 view .LVU230
	addpd	xmm9, xmm12
	.loc 1 153 34 view .LVU231
	mov	rdx, QWORD PTR -56[rbp]
	.loc 1 150 46 view .LVU232
	addpd	xmm1, xmm10
	addpd	xmm0, xmm1
	.loc 1 142 45 view .LVU233
	movupd	xmm1, XMMWORD PTR [r12+rax]
	addpd	xmm1, xmm11
	.loc 1 148 15 view .LVU234
	mulpd	xmm0, xmm3
	.loc 1 142 45 view .LVU235
	addpd	xmm1, xmm9
	.loc 1 154 20 view .LVU236
	movupd	xmm9, XMMWORD PTR [r15+rax]
	addpd	xmm9, xmm14
	.loc 1 139 15 view .LVU237
	mulpd	xmm1, xmm2
	.loc 1 154 46 view .LVU238
	addpd	xmm0, xmm1
	.loc 1 154 20 view .LVU239
	movupd	xmm1, XMMWORD PTR [r14+rax]
	addpd	xmm1, xmm13
	addpd	xmm1, xmm9
	.loc 1 145 16 view .LVU240
	movupd	xmm9, XMMWORD PTR [rdi+rax]
	addpd	xmm9, xmm9
	.loc 1 154 20 view .LVU241
	mulpd	xmm1, xmm5
	.loc 1 154 46 view .LVU242
	addpd	xmm1, xmm9
	addpd	xmm0, xmm1
	.loc 1 154 55 view .LVU243
	mulpd	xmm0, xmm4
	.loc 1 153 34 view .LVU244
	movups	XMMWORD PTR [rdx+rax], xmm0
	.loc 1 157 9 is_stmt 1 view .LVU245
	.loc 1 129 7 discriminator 2 view .LVU246
	.loc 1 129 25 discriminator 1 view .LVU247
	add	rax, 16
	cmp	rax, 63984
	jne	.L42
.LVL63:
.L41:
	.loc 1 129 25 is_stmt 0 discriminator 1 view .LVU248
.LBE398:
	.loc 1 128 5 is_stmt 1 discriminator 2 view .LVU249
	.loc 1 128 23 discriminator 1 view .LVU250
	add	QWORD PTR -56[rbp], 64000
	add	rcx, 64000
	mov	rdx, rdi
	add	rsi, 64000
	add	QWORD PTR -72[rbp], 64000
	cmp	QWORD PTR -80[rbp], rdi
	jne	.L47
.LBE401:
	.loc 1 127 17 is_stmt 0 discriminator 1 view .LVU251
	mov	r9d, DWORD PTR -100[rbp]
	mov	rax, QWORD PTR -88[rbp]
	mov	r8, QWORD PTR -96[rbp]
	mov	rbx, QWORD PTR -112[rbp]
	.loc 1 127 17 discriminator 1 view .LVU252
	mov	r10, QWORD PTR -120[rbp]
.LBE407:
	.loc 1 164 5 is_stmt 1 view .LVU253
.LVL64:
.LBB408:
.LBB402:
.LBI402:
	.file 7 "/usr/include/c++/13/bits/move.h"
	.loc 7 189 5 view .LVU254
	.loc 7 189 5 is_stmt 0 view .LVU255
.LBE402:
.LBE408:
	.loc 1 185 5 is_stmt 1 view .LVU256
.LBB409:
	.loc 1 127 3 discriminator 2 view .LVU257
	.loc 1 127 17 discriminator 1 view .LVU258
	sub	r9d, 1
	je	.L46
	mov	rdx, rax
.LBB404:
.LBB403:
	.loc 7 199 11 is_stmt 0 view .LVU259
	mov	rax, r8
	.loc 7 198 11 view .LVU260
	mov	r8, rdx
.LVL65:
	.loc 7 198 11 view .LVU261
	jmp	.L39
.LVL66:
.L51:
	.loc 7 198 11 view .LVU262
.LBE403:
.LBE404:
.LBE409:
	.loc 1 104 12 view .LVU263
	mov	r8, QWORD PTR -56[rbp]
	mov	r9, QWORD PTR -72[rbp]
	mov	rdi, rdx
	mov	rax, rsi
.LVL67:
	.p2align 4,,10
	.p2align 3
.L40:
.LBB410:
.LBB405:
.LBB399:
	.loc 1 131 9 is_stmt 1 view .LVU264
	.loc 1 135 9 view .LVU265
	.loc 1 139 9 view .LVU266
	.loc 1 145 9 view .LVU267
	.loc 1 148 9 view .LVU268
	.loc 1 153 9 view .LVU269
	.loc 1 139 15 is_stmt 0 view .LVU270
	movsd	xmm0, QWORD PTR 16[rax]
	addsd	xmm0, QWORD PTR [rax]
	.loc 1 129 25 discriminator 1 view .LVU271
	add	rax, 8
.LVL68:
	.loc 1 129 25 discriminator 1 view .LVU272
	add	rdi, 8
.LVL69:
	.loc 1 139 15 view .LVU273
	movsd	xmm1, QWORD PTR 64000[rax]
	addsd	xmm1, QWORD PTR -64000[rax]
	.loc 1 129 25 discriminator 1 view .LVU274
	add	r8, 8
	.loc 1 150 46 view .LVU275
	movsd	xmm9, QWORD PTR 64000[rdi]
	addsd	xmm9, QWORD PTR 63984[rdi]
	.loc 1 139 15 view .LVU276
	addsd	xmm0, xmm1
	.loc 1 150 46 view .LVU277
	movsd	xmm1, QWORD PTR 127992[rdi]
	addsd	xmm1, QWORD PTR -8[rdi]
	addsd	xmm1, xmm9
	.loc 1 142 45 view .LVU278
	movsd	xmm9, QWORD PTR 64008[rax]
	addsd	xmm9, QWORD PTR 63992[rax]
	.loc 1 139 15 view .LVU279
	unpcklpd	xmm0, xmm1
	.loc 1 142 45 view .LVU280
	movsd	xmm1, QWORD PTR -63992[rax]
	addsd	xmm1, QWORD PTR -64008[rax]
	.loc 1 139 15 view .LVU281
	mulpd	xmm0, xmm8
	.loc 1 142 45 view .LVU282
	addsd	xmm1, xmm9
	.loc 1 139 15 view .LVU283
	movhpd	xmm1, QWORD PTR 63992[rdi]
	mulpd	xmm1, xmm7
	addpd	xmm0, xmm1
	movapd	xmm1, xmm0
	unpckhpd	xmm1, xmm0
	addpd	xmm0, xmm1
	.loc 1 154 55 view .LVU284
	mulsd	xmm0, xmm6
	.loc 1 153 34 view .LVU285
	movsd	QWORD PTR -8[r8], xmm0
.LVL70:
	.loc 1 157 9 is_stmt 1 view .LVU286
	.loc 1 129 7 discriminator 2 view .LVU287
	.loc 1 129 25 discriminator 1 view .LVU288
	cmp	rax, r9
	jne	.L40
	lea	rdi, 64000[rdx]
	jmp	.L41
.LVL71:
.L46:
	.loc 1 129 25 is_stmt 0 discriminator 1 view .LVU289
	mov	QWORD PTR Phi_grid[rip], r8
.LBE399:
.LBE405:
.LBE410:
	.loc 1 188 3 is_stmt 1 view .LVU290
	mov	QWORD PTR Phi_grid_new[rip], rax
	.loc 1 188 59 is_stmt 0 view .LVU291
	call	_ZNSt6chrono3_V212system_clock3nowEv@PLT
.LVL72:
	.loc 1 189 3 is_stmt 1 view .LVU292
.LBB411:
.LBI411:
	.file 8 "/usr/include/c++/13/bits/chrono.h"
	.loc 8 1141 7 view .LVU293
.LBB412:
.LBI412:
	.loc 8 949 2 view .LVU294
	.loc 8 949 2 is_stmt 0 view .LVU295
.LBE412:
.LBB413:
.LBI413:
	.loc 8 949 2 is_stmt 1 view .LVU296
	.loc 8 949 2 is_stmt 0 view .LVU297
.LBE413:
.LBB414:
.LBI414:
	.loc 8 710 7 is_stmt 1 view .LVU298
.LBB415:
.LBB416:
.LBI416:
	.loc 8 573 23 view .LVU299
	.loc 8 573 23 is_stmt 0 view .LVU300
.LBE416:
.LBE415:
.LBE414:
.LBE411:
.LBB419:
.LBI419:
	.loc 8 581 14 is_stmt 1 view .LVU301
.LBB420:
.LBI420:
	.loc 8 273 7 view .LVU302
.LBB421:
.LBB422:
.LBI422:
	.loc 8 208 4 view .LVU303
.LBB423:
	.loc 8 212 8 is_stmt 0 discriminator 1 view .LVU304
	pxor	xmm0, xmm0
.LBE423:
.LBE422:
.LBE421:
.LBE420:
.LBE419:
.LBB434:
.LBB435:
	.loc 4 667 18 view .LVU305
	mov	edx, 6
	lea	rsi, .LC32[rip]
.LVL73:
	.loc 4 667 18 view .LVU306
.LBE435:
.LBE434:
.LBB439:
.LBB418:
.LBB417:
	.loc 8 716 34 discriminator 2 view .LVU307
	sub	rax, rbx
.LBE417:
.LBE418:
.LBE439:
.LBB440:
.LBB436:
	.loc 4 667 18 view .LVU308
	lea	rbx, _ZSt4cout[rip]
.LVL74:
	.loc 4 667 18 view .LVU309
.LBE436:
.LBE440:
.LBB441:
.LBB431:
.LBB429:
.LBB427:
.LBB425:
	.loc 8 212 8 discriminator 1 view .LVU310
	cvtsi2sd	xmm0, rax
	.loc 8 212 38 discriminator 1 view .LVU311
	mulsd	xmm0, QWORD PTR .LC31[rip]
.LBE425:
.LBE427:
.LBE429:
.LBE431:
.LBE441:
.LBB442:
.LBB437:
	.loc 4 667 18 view .LVU312
	mov	rdi, rbx
.LBE437:
.LBE442:
.LBB443:
.LBB432:
.LBB430:
.LBB428:
.LBB426:
	.loc 8 212 38 discriminator 1 view .LVU313
	movsd	QWORD PTR -56[rbp], xmm0
.LBB424:
.LBI424:
	.loc 8 573 23 is_stmt 1 view .LVU314
.LVL75:
	.loc 8 573 23 is_stmt 0 view .LVU315
.LBE424:
.LBE426:
.LBE428:
.LBE430:
.LBE432:
.LBB433:
.LBI433:
	.loc 8 589 2 is_stmt 1 view .LVU316
	.loc 8 589 2 is_stmt 0 view .LVU317
.LBE433:
.LBE443:
	.loc 1 190 3 is_stmt 1 view .LVU318
.LBB444:
.LBI434:
	.loc 4 662 5 view .LVU319
.LBB438:
	.loc 4 667 18 is_stmt 0 view .LVU320
	call	_ZSt16__ostream_insertIcSt11char_traitsIcEERSt13basic_ostreamIT_T0_ES6_PKS3_l@PLT
.LVL76:
	.loc 4 667 18 view .LVU321
.LBE438:
.LBE444:
.LBB445:
.LBI445:
	.loc 4 222 7 is_stmt 1 view .LVU322
.LBB446:
	.loc 4 223 25 is_stmt 0 view .LVU323
	movsd	xmm0, QWORD PTR -56[rbp]
	mov	rdi, rbx
	call	_ZNSo9_M_insertIdEERSoT_@PLT
.LVL77:
	mov	r12, rax
.LVL78:
	.loc 4 223 25 view .LVU324
.LBE446:
.LBE445:
.LBB447:
.LBI447:
	.loc 4 110 7 is_stmt 1 view .LVU325
.LBB448:
.LBI448:
	.loc 4 735 5 view .LVU326
.LBB449:
	.loc 4 736 39 is_stmt 0 view .LVU327
	mov	rax, QWORD PTR [rax]
.LVL79:
	.loc 4 736 39 view .LVU328
	mov	rax, QWORD PTR -24[rax]
	mov	rbx, QWORD PTR 240[r12+rax]
.LVL80:
.LBB450:
.LBI450:
	.loc 2 449 7 is_stmt 1 view .LVU329
.LBB451:
.LBI451:
	.loc 2 47 5 view .LVU330
.LBB452:
	.loc 2 49 7 is_stmt 0 view .LVU331
	test	rbx, rbx
	je	.L57
.LVL81:
	.loc 2 49 7 view .LVU332
.LBE452:
.LBE451:
.LBB454:
.LBI454:
	.file 9 "/usr/include/c++/13/bits/locale_facets.h"
	.loc 9 880 7 is_stmt 1 view .LVU333
.LBB455:
	.loc 9 882 2 view .LVU334
	cmp	BYTE PTR 56[rbx], 0
	je	.L49
	.loc 9 883 4 view .LVU335
	.loc 9 883 51 is_stmt 0 view .LVU336
	movzx	eax, BYTE PTR 67[rbx]
.LVL82:
.L50:
	.loc 9 883 51 view .LVU337
.LBE455:
.LBE454:
.LBE450:
	.loc 4 736 19 discriminator 1 view .LVU338
	movsx	esi, al
	mov	rdi, r12
	call	_ZNSo3putEc@PLT
.LVL83:
	mov	rdi, rax
.LVL84:
.LBB461:
.LBI461:
	.loc 4 757 5 is_stmt 1 view .LVU339
.LBB462:
	.loc 4 758 24 is_stmt 0 view .LVU340
	call	_ZNSo5flushEv@PLT
.LVL85:
	.loc 4 758 24 view .LVU341
.LBE462:
.LBE461:
.LBE449:
.LBE448:
.LBE447:
	.loc 1 192 3 is_stmt 1 view .LVU342
	.loc 1 192 7 is_stmt 0 view .LVU343
	call	_Z4dumpv
.LVL86:
	.loc 1 194 3 is_stmt 1 view .LVU344
	.loc 1 195 1 is_stmt 0 view .LVU345
	add	rsp, 88
	xor	eax, eax
	pop	rbx
	pop	r12
	pop	r13
	pop	r14
	pop	r15
	pop	rbp
	.cfi_remember_state
	.cfi_def_cfa 7, 8
	ret
.LVL87:
.L49:
	.cfi_restore_state
.LBB466:
.LBB465:
.LBB464:
.LBB463:
.LBB459:
.LBB458:
.LBB456:
.LBI456:
	.loc 9 880 7 is_stmt 1 view .LVU346
.LBB457:
	.loc 9 884 2 view .LVU347
	.loc 9 884 21 is_stmt 0 view .LVU348
	mov	rdi, rbx
	call	_ZNKSt5ctypeIcE13_M_widen_initEv@PLT
.LVL88:
	.loc 9 885 2 is_stmt 1 view .LVU349
	.loc 9 885 23 is_stmt 0 view .LVU350
	mov	rax, QWORD PTR [rbx]
	mov	esi, 10
	mov	rdi, rbx
	call	[QWORD PTR 48[rax]]
.LVL89:
	.loc 9 885 23 view .LVU351
	jmp	.L50
.LVL90:
.L57:
	.loc 9 885 23 view .LVU352
.LBE457:
.LBE456:
.LBE458:
.LBE459:
.LBB460:
.LBB453:
	.loc 2 50 18 view .LVU353
	call	_ZSt16__throw_bad_castv@PLT
.LVL91:
	.loc 2 50 18 view .LVU354
.LBE453:
.LBE460:
.LBE463:
.LBE464:
.LBE465:
.LBE466:
	.cfi_endproc
.LFE3140:
	.size	main, .-main
	.globl	rho_grid
	.section	.data.rel.local,"aw"
	.align 8
	.type	rho_grid, @object
	.size	rho_grid, 8
rho_grid:
	.quad	buf+1024000000
	.globl	Phi_grid
	.align 8
	.type	Phi_grid, @object
	.size	Phi_grid, 8
Phi_grid:
	.quad	buf
	.globl	Phi_grid_new
	.align 8
	.type	Phi_grid_new, @object
	.size	Phi_grid_new, 8
Phi_grid_new:
	.quad	buf+512000000
	.globl	buf
	.bss
	.align 32
	.type	buf, @object
	.size	buf, 1536000000
buf:
	.zero	1536000000
	.section	.rodata.cst16,"aM",@progbits,16
	.align 16
.LC0:
	.long	0
	.long	1
	.long	2
	.long	3
	.section	.rodata.cst8,"aM",@progbits,8
	.align 8
.LC1:
	.long	251286998
	.long	1061184212
	.align 8
.LC2:
	.long	1431655765
	.long	1074091349
	.align 8
.LC3:
	.long	1431655765
	.long	1073042773
	.section	.rodata.cst16
	.align 16
.LC4:
	.long	4
	.long	4
	.long	4
	.long	4
	.section	.rodata.cst8
	.align 8
.LC7:
	.long	1431655765
	.long	-1074440875
	.align 8
.LC9:
	.long	1431655765
	.long	-1073392299
	.align 8
.LC11:
	.long	1202590844
	.long	1069841121
	.align 8
.LC13:
	.long	-1717986918
	.long	-1078355559
	.align 8
.LC15:
	.long	-1717986918
	.long	1069128089
	.section	.data.rel.ro,"aw"
	.align 8
.LC19:
	.quad	_ZTVSt14basic_ofstreamIcSt11char_traitsIcEE+24
	.section	.rodata.cst16
	.align 16
.LC21:
	.long	134217728
	.long	1096712844
	.long	0
	.long	1070596096
	.align 16
.LC22:
	.long	134217726
	.long	1094615692
	.long	0
	.long	1073741824
	.section	.rodata.cst8
	.align 8
.LC23:
	.long	1166330776
	.long	1046141354
	.set	.LC25,.LC21+8
	.set	.LC27,.LC22
	.set	.LC29,.LC21
	.align 8
.LC31:
	.long	-400107883
	.long	1041313291
	.text
.Letext0:
	.section	.text.unlikely
.Letext_cold0:
	.file 10 "/usr/include/c++/13/type_traits"
	.file 11 "/usr/include/c++/13/debug/debug.h"
	.file 12 "/usr/include/c++/13/cstdlib"
	.file 13 "/usr/include/x86_64-linux-gnu/c++/13/bits/c++config.h"
	.file 14 "/usr/include/c++/13/bits/new_allocator.h"
	.file 15 "/usr/include/c++/13/bits/allocator.h"
	.file 16 "/usr/include/c++/13/cstddef"
	.file 17 "/usr/include/c++/13/cstdint"
	.file 18 "/usr/include/c++/13/ctime"
	.file 19 "/usr/include/c++/13/ratio"
	.file 20 "/usr/include/c++/13/cstring"
	.file 21 "/usr/include/c++/13/cwchar"
	.file 22 "/usr/include/c++/13/bits/exception_ptr.h"
	.file 23 "/usr/include/c++/13/bits/char_traits.h"
	.file 24 "/usr/include/c++/13/bits/postypes.h"
	.file 25 "/usr/include/c++/13/clocale"
	.file 26 "/usr/include/c++/13/string_view"
	.file 27 "/usr/include/c++/13/cstdio"
	.file 28 "/usr/include/c++/13/bits/alloc_traits.h"
	.file 29 "/usr/include/c++/13/bits/basic_string.h"
	.file 30 "/usr/include/c++/13/initializer_list"
	.file 31 "/usr/include/c++/13/bits/locale_classes.h"
	.file 32 "/usr/include/c++/13/bits/stringfwd.h"
	.file 33 "/usr/include/c++/13/cwctype"
	.file 34 "/usr/include/c++/13/bits/ostream.tcc"
	.file 35 "/usr/include/c++/13/bits/streambuf.tcc"
	.file 36 "/usr/include/x86_64-linux-gnu/c++/13/bits/basic_file.h"
	.file 37 "/usr/include/x86_64-linux-gnu/c++/13/bits/c++io.h"
	.file 38 "/usr/include/c++/13/iosfwd"
	.file 39 "/usr/include/c++/13/bits/stl_iterator_base_types.h"
	.file 40 "/usr/include/c++/13/iostream"
	.file 41 "/usr/include/c++/13/bits/charconv.h"
	.file 42 "/usr/include/c++/13/bits/ostream_insert.h"
	.file 43 "/usr/include/c++/13/bits/fstream.tcc"
	.file 44 "/usr/include/c++/13/bits/basic_ios.tcc"
	.file 45 "/usr/include/c++/13/bits/stl_algobase.h"
	.file 46 "/usr/include/c++/13/bits/predefined_ops.h"
	.file 47 "/usr/include/c++/13/ext/alloc_traits.h"
	.file 48 "/usr/include/c++/13/bits/functexcept.h"
	.file 49 "/usr/include/c++/13/bits/stl_iterator.h"
	.file 50 "/usr/lib/gcc/x86_64-linux-gnu/13/include/stddef.h"
	.file 51 "/usr/include/stdlib.h"
	.file 52 "/usr/include/x86_64-linux-gnu/bits/types.h"
	.file 53 "/usr/include/x86_64-linux-gnu/sys/types.h"
	.file 54 "/usr/include/x86_64-linux-gnu/bits/types/clock_t.h"
	.file 55 "/usr/include/x86_64-linux-gnu/bits/types/time_t.h"
	.file 56 "/usr/include/x86_64-linux-gnu/bits/stdint-intn.h"
	.file 57 "/usr/include/x86_64-linux-gnu/bits/types/struct_timespec.h"
	.file 58 "/usr/include/x86_64-linux-gnu/bits/thread-shared-types.h"
	.file 59 "/usr/include/x86_64-linux-gnu/bits/struct_mutex.h"
	.file 60 "/usr/include/x86_64-linux-gnu/bits/pthreadtypes.h"
	.file 61 "/usr/include/x86_64-linux-gnu/bits/stdlib-float.h"
	.file 62 "/usr/include/x86_64-linux-gnu/bits/stdlib-bsearch.h"
	.file 63 "/usr/include/x86_64-linux-gnu/bits/stdlib.h"
	.file 64 "/usr/include/c++/13/pstl/execution_defs.h"
	.file 65 "/usr/include/c++/13/bits/algorithmfwd.h"
	.file 66 "/usr/include/x86_64-linux-gnu/bits/stdint-uintn.h"
	.file 67 "/usr/include/x86_64-linux-gnu/bits/stdint-least.h"
	.file 68 "/usr/include/stdint.h"
	.file 69 "/usr/include/x86_64-linux-gnu/bits/types/struct_tm.h"
	.file 70 "/usr/include/time.h"
	.file 71 "/usr/include/string.h"
	.file 72 "<built-in>"
	.file 73 "/usr/include/x86_64-linux-gnu/bits/types/wint_t.h"
	.file 74 "/usr/include/x86_64-linux-gnu/bits/types/__mbstate_t.h"
	.file 75 "/usr/include/x86_64-linux-gnu/bits/types/mbstate_t.h"
	.file 76 "/usr/include/x86_64-linux-gnu/bits/types/__FILE.h"
	.file 77 "/usr/include/x86_64-linux-gnu/bits/types/struct_FILE.h"
	.file 78 "/usr/include/x86_64-linux-gnu/bits/types/FILE.h"
	.file 79 "/usr/include/wchar.h"
	.file 80 "/usr/include/x86_64-linux-gnu/bits/wchar2.h"
	.file 81 "/usr/include/locale.h"
	.file 82 "/usr/include/x86_64-linux-gnu/bits/cpu-set.h"
	.file 83 "/usr/include/x86_64-linux-gnu/c++/13/bits/gthr-default.h"
	.file 84 "/usr/include/x86_64-linux-gnu/c++/13/bits/atomic_word.h"
	.file 85 "/usr/include/x86_64-linux-gnu/bits/types/__fpos_t.h"
	.file 86 "/usr/include/stdio.h"
	.file 87 "/usr/include/x86_64-linux-gnu/bits/stdio2.h"
	.file 88 "/usr/include/x86_64-linux-gnu/bits/stdio.h"
	.file 89 "/usr/include/x86_64-linux-gnu/bits/wctype-wchar.h"
	.file 90 "/usr/include/wctype.h"
	.file 91 "/usr/include/sched.h"
	.file 92 "/usr/include/unistd.h"
	.file 93 "/usr/include/c++/13/new"
	.file 94 "/usr/include/c++/13/bits/memory_resource.h"
	.section	.data.rel.local.DW.ref.__gxx_personality_v0,"awG",@progbits,DW.ref.__gxx_personality_v0,comdat
	.align 8
	.type	DW.ref.__gxx_personality_v0, @object
	.size	DW.ref.__gxx_personality_v0, 8
DW.ref.__gxx_personality_v0:
	.quad	__gxx_personality_v0
	.ident	"GCC: (Ubuntu 13.3.0-6ubuntu2~24.04) 13.3.0"
	.section	.note.GNU-stack,"",@progbits
	.section	.note.gnu.property,"a"
	.align 8
	.long	1f - 0f
	.long	4f - 1f
	.long	5
0:
	.string	"GNU"
1:
	.align 8
	.long	0xc0000002
	.long	3f - 2f
2:
	.long	0x3
3:
	.align 8
4:
